ARM GAS  /var/folders/s6/4bph2j8d1nvcsgz5bgm0yhx00000gn/T//ccF5ee78.s 			page 1


   1              		.syntax unified
   2              		.cpu cortex-m3
   3              		.fpu softvfp
   4              		.eabi_attribute 20, 1
   5              		.eabi_attribute 21, 1
   6              		.eabi_attribute 23, 3
   7              		.eabi_attribute 24, 1
   8              		.eabi_attribute 25, 1
   9              		.eabi_attribute 26, 1
  10              		.eabi_attribute 30, 4
  11              		.eabi_attribute 34, 1
  12              		.eabi_attribute 18, 4
  13              		.thumb
  14              		.file	"bluetooth_rxtx.c"
  15              		.text
  16              	.Ltext0:
  17              		.cfi_sections	.debug_frame
  18              		.section	.text.reverse8,"ax",%progbits
  19              		.align	1
  20              		.thumb
  21              		.thumb_func
  23              	reverse8:
  24              	.LFB15:
  25              		.file 1 "bluetooth_rxtx.c"
   1:bluetooth_rxtx.c **** /*
   2:bluetooth_rxtx.c ****  * Copyright 2010-2013 Michael Ossmann
   3:bluetooth_rxtx.c ****  * Copyright 2011-2013 Dominic Spill
   4:bluetooth_rxtx.c ****  *
   5:bluetooth_rxtx.c ****  * This file is part of Project Ubertooth.
   6:bluetooth_rxtx.c ****  *
   7:bluetooth_rxtx.c ****  * This program is free software; you can redistribute it and/or modify
   8:bluetooth_rxtx.c ****  * it under the terms of the GNU General Public License as published by
   9:bluetooth_rxtx.c ****  * the Free Software Foundation; either version 2, or (at your option)
  10:bluetooth_rxtx.c ****  * any later version.
  11:bluetooth_rxtx.c ****  *
  12:bluetooth_rxtx.c ****  * This program is distributed in the hope that it will be useful,
  13:bluetooth_rxtx.c ****  * but WITHOUT ANY WARRANTY; without even the implied warranty of
  14:bluetooth_rxtx.c ****  * MERCHANTABILITY or FITNESS FOR A PARTICULAR PURPOSE.  See the
  15:bluetooth_rxtx.c ****  * GNU General Public License for more details.
  16:bluetooth_rxtx.c ****  *
  17:bluetooth_rxtx.c ****  * You should have received a copy of the GNU General Public License
  18:bluetooth_rxtx.c ****  * along with this program; see the file COPYING.  If not, write to
  19:bluetooth_rxtx.c ****  * the Free Software Foundation, Inc., 51 Franklin Street,
  20:bluetooth_rxtx.c ****  * Boston, MA 02110-1301, USA.
  21:bluetooth_rxtx.c ****  */
  22:bluetooth_rxtx.c **** 
  23:bluetooth_rxtx.c **** #include <string.h>
  24:bluetooth_rxtx.c **** 
  25:bluetooth_rxtx.c **** #include "ubertooth.h"
  26:bluetooth_rxtx.c **** #include "ubertooth_usb.h"
  27:bluetooth_rxtx.c **** #include "ubertooth_interface.h"
  28:bluetooth_rxtx.c **** #include "ubertooth_rssi.h"
  29:bluetooth_rxtx.c **** #include "ubertooth_cs.h"
  30:bluetooth_rxtx.c **** #include "ubertooth_dma.h"
  31:bluetooth_rxtx.c **** #include "ubertooth_clock.h"
  32:bluetooth_rxtx.c **** #include "bluetooth.h"
  33:bluetooth_rxtx.c **** #include "bluetooth_le.h"
ARM GAS  /var/folders/s6/4bph2j8d1nvcsgz5bgm0yhx00000gn/T//ccF5ee78.s 			page 2


  34:bluetooth_rxtx.c **** #include "cc2400_rangetest.h"
  35:bluetooth_rxtx.c **** #include "ego.h"
  36:bluetooth_rxtx.c **** 
  37:bluetooth_rxtx.c **** #define MIN(x,y)	((x)<(y)?(x):(y))
  38:bluetooth_rxtx.c **** #define MAX(x,y)	((x)>(y)?(x):(y))
  39:bluetooth_rxtx.c **** 
  40:bluetooth_rxtx.c **** /* build info */
  41:bluetooth_rxtx.c **** const char compile_info[] =
  42:bluetooth_rxtx.c **** 	"ubertooth " GIT_REVISION " (" COMPILE_BY "@" COMPILE_HOST ") " TIMESTAMP;
  43:bluetooth_rxtx.c **** 
  44:bluetooth_rxtx.c **** /* hopping stuff */
  45:bluetooth_rxtx.c **** volatile uint8_t  hop_mode = HOP_NONE;
  46:bluetooth_rxtx.c **** volatile uint8_t  do_hop = 0;                  // set by timer interrupt
  47:bluetooth_rxtx.c **** volatile uint16_t channel = 2441;
  48:bluetooth_rxtx.c **** volatile uint16_t hop_direct_channel = 0;      // for hopping directly to a channel
  49:bluetooth_rxtx.c **** volatile uint16_t hop_timeout = 158;
  50:bluetooth_rxtx.c **** volatile uint16_t requested_channel = 0;
  51:bluetooth_rxtx.c **** volatile uint16_t le_adv_channel = 2402;
  52:bluetooth_rxtx.c **** 
  53:bluetooth_rxtx.c **** /* bulk USB stuff */
  54:bluetooth_rxtx.c **** volatile uint8_t  idle_buf_clkn_high = 0;
  55:bluetooth_rxtx.c **** volatile uint32_t idle_buf_clk100ns = 0;
  56:bluetooth_rxtx.c **** volatile uint16_t idle_buf_channel = 0;
  57:bluetooth_rxtx.c **** volatile uint8_t  dma_discard = 0;
  58:bluetooth_rxtx.c **** volatile uint8_t  status = 0;
  59:bluetooth_rxtx.c **** 
  60:bluetooth_rxtx.c **** /* operation mode */
  61:bluetooth_rxtx.c **** volatile uint8_t mode = MODE_IDLE;
  62:bluetooth_rxtx.c **** volatile uint8_t requested_mode = MODE_IDLE;
  63:bluetooth_rxtx.c **** volatile uint8_t jam_mode = JAM_NONE;
  64:bluetooth_rxtx.c **** volatile uint8_t ego_mode = EGO_FOLLOW;
  65:bluetooth_rxtx.c **** 
  66:bluetooth_rxtx.c **** volatile uint8_t modulation = MOD_BT_BASIC_RATE;
  67:bluetooth_rxtx.c **** 
  68:bluetooth_rxtx.c **** /* specan stuff */
  69:bluetooth_rxtx.c **** volatile uint16_t low_freq = 2400;
  70:bluetooth_rxtx.c **** volatile uint16_t high_freq = 2483;
  71:bluetooth_rxtx.c **** volatile int8_t rssi_threshold = -30;  // -54dBm - 30 = -84dBm
  72:bluetooth_rxtx.c **** 
  73:bluetooth_rxtx.c **** /* Generic TX stuff */
  74:bluetooth_rxtx.c **** generic_tx_packet tx_pkt;
  75:bluetooth_rxtx.c **** 
  76:bluetooth_rxtx.c **** /* le stuff */
  77:bluetooth_rxtx.c **** uint8_t slave_mac_address[6] = { 0, };
  78:bluetooth_rxtx.c **** 
  79:bluetooth_rxtx.c **** 
  80:bluetooth_rxtx.c **** le_state_t le = {
  81:bluetooth_rxtx.c **** 	.access_address = 0x8e89bed6,           // advertising channel access address
  82:bluetooth_rxtx.c **** 	.synch = 0x6b7d,                        // bit-reversed adv channel AA
  83:bluetooth_rxtx.c **** 	.syncl = 0x9171,
  84:bluetooth_rxtx.c **** 	.crc_init  = 0x555555,                  // advertising channel CRCInit
  85:bluetooth_rxtx.c **** 	.crc_init_reversed = 0xAAAAAA,
  86:bluetooth_rxtx.c **** 	.crc_verify = 0,
  87:bluetooth_rxtx.c **** 
  88:bluetooth_rxtx.c **** 	.link_state = LINK_INACTIVE,
  89:bluetooth_rxtx.c **** 	.conn_epoch = 0,
  90:bluetooth_rxtx.c **** 	.target_set = 0,
ARM GAS  /var/folders/s6/4bph2j8d1nvcsgz5bgm0yhx00000gn/T//ccF5ee78.s 			page 3


  91:bluetooth_rxtx.c **** 	.last_packet = 0,
  92:bluetooth_rxtx.c **** };
  93:bluetooth_rxtx.c **** 
  94:bluetooth_rxtx.c **** typedef struct _le_promisc_active_aa_t {
  95:bluetooth_rxtx.c **** 	u32 aa;
  96:bluetooth_rxtx.c **** 	int count;
  97:bluetooth_rxtx.c **** } le_promisc_active_aa_t;
  98:bluetooth_rxtx.c **** 
  99:bluetooth_rxtx.c **** typedef struct _le_promisc_state_t {
 100:bluetooth_rxtx.c **** 	// LFU cache of recently seen AA's
 101:bluetooth_rxtx.c **** 	le_promisc_active_aa_t active_aa[32];
 102:bluetooth_rxtx.c **** 
 103:bluetooth_rxtx.c **** 	// recovering hop interval
 104:bluetooth_rxtx.c **** 	u32 smallest_hop_interval;
 105:bluetooth_rxtx.c **** 	int consec_intervals;
 106:bluetooth_rxtx.c **** } le_promisc_state_t;
 107:bluetooth_rxtx.c **** le_promisc_state_t le_promisc;
 108:bluetooth_rxtx.c **** #define AA_LIST_SIZE (int)(sizeof(le_promisc.active_aa) / sizeof(le_promisc_active_aa_t))
 109:bluetooth_rxtx.c **** 
 110:bluetooth_rxtx.c **** /* LE jamming */
 111:bluetooth_rxtx.c **** #define JAM_COUNT_DEFAULT 40
 112:bluetooth_rxtx.c **** int le_jam_count = 0;
 113:bluetooth_rxtx.c **** 
 114:bluetooth_rxtx.c **** /* set LE access address */
 115:bluetooth_rxtx.c **** static void le_set_access_address(u32 aa);
 116:bluetooth_rxtx.c **** 
 117:bluetooth_rxtx.c **** typedef int (*data_cb_t)(char *);
 118:bluetooth_rxtx.c **** data_cb_t data_cb = NULL;
 119:bluetooth_rxtx.c **** 
 120:bluetooth_rxtx.c **** typedef void (*packet_cb_t)(u8 *);
 121:bluetooth_rxtx.c **** packet_cb_t packet_cb = NULL;
 122:bluetooth_rxtx.c **** 
 123:bluetooth_rxtx.c **** /* Unpacked symbol buffers (two rxbufs) */
 124:bluetooth_rxtx.c **** char unpacked[DMA_SIZE*8*2];
 125:bluetooth_rxtx.c **** 
 126:bluetooth_rxtx.c **** static int enqueue(uint8_t type, uint8_t* buf)
 127:bluetooth_rxtx.c **** {
 128:bluetooth_rxtx.c **** 	usb_pkt_rx* f = usb_enqueue();
 129:bluetooth_rxtx.c **** 
 130:bluetooth_rxtx.c **** 	/* fail if queue is full */
 131:bluetooth_rxtx.c **** 	if (f == NULL) {
 132:bluetooth_rxtx.c **** 		status |= FIFO_OVERFLOW;
 133:bluetooth_rxtx.c **** 		return 0;
 134:bluetooth_rxtx.c **** 	}
 135:bluetooth_rxtx.c **** 
 136:bluetooth_rxtx.c **** 	f->pkt_type = type;
 137:bluetooth_rxtx.c **** 	if(type == SPECAN) {
 138:bluetooth_rxtx.c **** 		f->clkn_high = (clkn >> 20) & 0xff;
 139:bluetooth_rxtx.c **** 		f->clk100ns = CLK100NS;
 140:bluetooth_rxtx.c **** 	} else {
 141:bluetooth_rxtx.c **** 		f->clkn_high = idle_buf_clkn_high;
 142:bluetooth_rxtx.c **** 		f->clk100ns = idle_buf_clk100ns;
 143:bluetooth_rxtx.c **** 		f->channel = (uint8_t)((idle_buf_channel - 2402) & 0xff);
 144:bluetooth_rxtx.c **** 		f->rssi_min = rssi_min;
 145:bluetooth_rxtx.c **** 		f->rssi_max = rssi_max;
 146:bluetooth_rxtx.c **** 		f->rssi_avg = rssi_get_avg(idle_buf_channel);
 147:bluetooth_rxtx.c **** 		f->rssi_count = rssi_count;
ARM GAS  /var/folders/s6/4bph2j8d1nvcsgz5bgm0yhx00000gn/T//ccF5ee78.s 			page 4


 148:bluetooth_rxtx.c **** 	}
 149:bluetooth_rxtx.c **** 
 150:bluetooth_rxtx.c **** 	memcpy(f->data, buf, DMA_SIZE);
 151:bluetooth_rxtx.c **** 
 152:bluetooth_rxtx.c **** 	f->status = status;
 153:bluetooth_rxtx.c **** 	status = 0;
 154:bluetooth_rxtx.c **** 
 155:bluetooth_rxtx.c **** 	return 1;
 156:bluetooth_rxtx.c **** }
 157:bluetooth_rxtx.c **** 
 158:bluetooth_rxtx.c **** int enqueue_with_ts(uint8_t type, uint8_t* buf, uint32_t ts)
 159:bluetooth_rxtx.c **** {
 160:bluetooth_rxtx.c **** 	usb_pkt_rx* f = usb_enqueue();
 161:bluetooth_rxtx.c **** 
 162:bluetooth_rxtx.c **** 	/* fail if queue is full */
 163:bluetooth_rxtx.c **** 	if (f == NULL) {
 164:bluetooth_rxtx.c **** 		status |= FIFO_OVERFLOW;
 165:bluetooth_rxtx.c **** 		return 0;
 166:bluetooth_rxtx.c **** 	}
 167:bluetooth_rxtx.c **** 
 168:bluetooth_rxtx.c **** 	f->pkt_type = type;
 169:bluetooth_rxtx.c **** 
 170:bluetooth_rxtx.c **** 	f->clkn_high = 0;
 171:bluetooth_rxtx.c **** 	f->clk100ns = ts;
 172:bluetooth_rxtx.c **** 
 173:bluetooth_rxtx.c **** 	f->channel = (uint8_t)((channel - 2402) & 0xff);
 174:bluetooth_rxtx.c **** 	f->rssi_avg = 0;
 175:bluetooth_rxtx.c **** 	f->rssi_count = 0;
 176:bluetooth_rxtx.c **** 
 177:bluetooth_rxtx.c **** 	memcpy(f->data, buf, DMA_SIZE);
 178:bluetooth_rxtx.c **** 
 179:bluetooth_rxtx.c **** 	f->status = status;
 180:bluetooth_rxtx.c **** 	status = 0;
 181:bluetooth_rxtx.c **** 
 182:bluetooth_rxtx.c **** 	return 1;
 183:bluetooth_rxtx.c **** }
 184:bluetooth_rxtx.c **** 
 185:bluetooth_rxtx.c **** static int vendor_request_handler(uint8_t request, uint16_t* request_params, uint8_t* data, int* da
 186:bluetooth_rxtx.c **** {
 187:bluetooth_rxtx.c **** 	uint32_t clock;
 188:bluetooth_rxtx.c **** 	size_t length; // string length
 189:bluetooth_rxtx.c **** 	usb_pkt_rx* p = NULL;
 190:bluetooth_rxtx.c **** 	uint16_t reg_val;
 191:bluetooth_rxtx.c **** 	uint8_t i;
 192:bluetooth_rxtx.c **** 
 193:bluetooth_rxtx.c **** 	switch (request) {
 194:bluetooth_rxtx.c **** 
 195:bluetooth_rxtx.c **** 	case UBERTOOTH_PING:
 196:bluetooth_rxtx.c **** 		*data_len = 0;
 197:bluetooth_rxtx.c **** 		break;
 198:bluetooth_rxtx.c **** 
 199:bluetooth_rxtx.c **** 	case UBERTOOTH_RX_SYMBOLS:
 200:bluetooth_rxtx.c **** 		requested_mode = MODE_RX_SYMBOLS;
 201:bluetooth_rxtx.c **** 		*data_len = 0;
 202:bluetooth_rxtx.c **** 		break;
 203:bluetooth_rxtx.c **** 
 204:bluetooth_rxtx.c **** 	case UBERTOOTH_TX_SYMBOLS:
ARM GAS  /var/folders/s6/4bph2j8d1nvcsgz5bgm0yhx00000gn/T//ccF5ee78.s 			page 5


 205:bluetooth_rxtx.c **** 		hop_mode = HOP_BLUETOOTH;
 206:bluetooth_rxtx.c **** 		requested_mode = MODE_TX_SYMBOLS;
 207:bluetooth_rxtx.c **** 		*data_len = 0;
 208:bluetooth_rxtx.c **** 		break;
 209:bluetooth_rxtx.c **** 
 210:bluetooth_rxtx.c **** 	case UBERTOOTH_GET_USRLED:
 211:bluetooth_rxtx.c **** 		data[0] = (USRLED) ? 1 : 0;
 212:bluetooth_rxtx.c **** 		*data_len = 1;
 213:bluetooth_rxtx.c **** 		break;
 214:bluetooth_rxtx.c **** 
 215:bluetooth_rxtx.c **** 	case UBERTOOTH_SET_USRLED:
 216:bluetooth_rxtx.c **** 		if (request_params[0])
 217:bluetooth_rxtx.c **** 			USRLED_SET;
 218:bluetooth_rxtx.c **** 		else
 219:bluetooth_rxtx.c **** 			USRLED_CLR;
 220:bluetooth_rxtx.c **** 		break;
 221:bluetooth_rxtx.c **** 
 222:bluetooth_rxtx.c **** 	case UBERTOOTH_GET_RXLED:
 223:bluetooth_rxtx.c **** 		data[0] = (RXLED) ? 1 : 0;
 224:bluetooth_rxtx.c **** 		*data_len = 1;
 225:bluetooth_rxtx.c **** 		break;
 226:bluetooth_rxtx.c **** 
 227:bluetooth_rxtx.c **** 	case UBERTOOTH_SET_RXLED:
 228:bluetooth_rxtx.c **** 		if (request_params[0])
 229:bluetooth_rxtx.c **** 			RXLED_SET;
 230:bluetooth_rxtx.c **** 		else
 231:bluetooth_rxtx.c **** 			RXLED_CLR;
 232:bluetooth_rxtx.c **** 		break;
 233:bluetooth_rxtx.c **** 
 234:bluetooth_rxtx.c **** 	case UBERTOOTH_GET_TXLED:
 235:bluetooth_rxtx.c **** 		data[0] = (TXLED) ? 1 : 0;
 236:bluetooth_rxtx.c **** 		*data_len = 1;
 237:bluetooth_rxtx.c **** 		break;
 238:bluetooth_rxtx.c **** 
 239:bluetooth_rxtx.c **** 	case UBERTOOTH_SET_TXLED:
 240:bluetooth_rxtx.c **** 		if (request_params[0])
 241:bluetooth_rxtx.c **** 			TXLED_SET;
 242:bluetooth_rxtx.c **** 		else
 243:bluetooth_rxtx.c **** 			TXLED_CLR;
 244:bluetooth_rxtx.c **** 		break;
 245:bluetooth_rxtx.c **** 
 246:bluetooth_rxtx.c **** 	case UBERTOOTH_GET_1V8:
 247:bluetooth_rxtx.c **** 		data[0] = (CC1V8) ? 1 : 0;
 248:bluetooth_rxtx.c **** 		*data_len = 1;
 249:bluetooth_rxtx.c **** 		break;
 250:bluetooth_rxtx.c **** 
 251:bluetooth_rxtx.c **** 	case UBERTOOTH_SET_1V8:
 252:bluetooth_rxtx.c **** 		if (request_params[0])
 253:bluetooth_rxtx.c **** 			CC1V8_SET;
 254:bluetooth_rxtx.c **** 		else
 255:bluetooth_rxtx.c **** 			CC1V8_CLR;
 256:bluetooth_rxtx.c **** 		break;
 257:bluetooth_rxtx.c **** 
 258:bluetooth_rxtx.c **** 	case UBERTOOTH_GET_PARTNUM:
 259:bluetooth_rxtx.c **** 		get_part_num(data, data_len);
 260:bluetooth_rxtx.c **** 		break;
 261:bluetooth_rxtx.c **** 
ARM GAS  /var/folders/s6/4bph2j8d1nvcsgz5bgm0yhx00000gn/T//ccF5ee78.s 			page 6


 262:bluetooth_rxtx.c **** 	case UBERTOOTH_RESET:
 263:bluetooth_rxtx.c **** 		requested_mode = MODE_RESET;
 264:bluetooth_rxtx.c **** 		break;
 265:bluetooth_rxtx.c **** 
 266:bluetooth_rxtx.c **** 	case UBERTOOTH_GET_SERIAL:
 267:bluetooth_rxtx.c **** 		get_device_serial(data, data_len);
 268:bluetooth_rxtx.c **** 		break;
 269:bluetooth_rxtx.c **** 
 270:bluetooth_rxtx.c **** #ifdef UBERTOOTH_ONE
 271:bluetooth_rxtx.c **** 	case UBERTOOTH_GET_PAEN:
 272:bluetooth_rxtx.c **** 		data[0] = (PAEN) ? 1 : 0;
 273:bluetooth_rxtx.c **** 		*data_len = 1;
 274:bluetooth_rxtx.c **** 		break;
 275:bluetooth_rxtx.c **** 
 276:bluetooth_rxtx.c **** 	case UBERTOOTH_SET_PAEN:
 277:bluetooth_rxtx.c **** 		if (request_params[0])
 278:bluetooth_rxtx.c **** 			PAEN_SET;
 279:bluetooth_rxtx.c **** 		else
 280:bluetooth_rxtx.c **** 			PAEN_CLR;
 281:bluetooth_rxtx.c **** 		break;
 282:bluetooth_rxtx.c **** 
 283:bluetooth_rxtx.c **** 	case UBERTOOTH_GET_HGM:
 284:bluetooth_rxtx.c **** 		data[0] = (HGM) ? 1 : 0;
 285:bluetooth_rxtx.c **** 		*data_len = 1;
 286:bluetooth_rxtx.c **** 		break;
 287:bluetooth_rxtx.c **** 
 288:bluetooth_rxtx.c **** 	case UBERTOOTH_SET_HGM:
 289:bluetooth_rxtx.c **** 		if (request_params[0])
 290:bluetooth_rxtx.c **** 			HGM_SET;
 291:bluetooth_rxtx.c **** 		else
 292:bluetooth_rxtx.c **** 			HGM_CLR;
 293:bluetooth_rxtx.c **** 		break;
 294:bluetooth_rxtx.c **** #endif
 295:bluetooth_rxtx.c **** 
 296:bluetooth_rxtx.c **** #ifdef TX_ENABLE
 297:bluetooth_rxtx.c **** 	case UBERTOOTH_TX_TEST:
 298:bluetooth_rxtx.c **** 		requested_mode = MODE_TX_TEST;
 299:bluetooth_rxtx.c **** 		break;
 300:bluetooth_rxtx.c **** 
 301:bluetooth_rxtx.c **** 	case UBERTOOTH_GET_PALEVEL:
 302:bluetooth_rxtx.c **** 		data[0] = cc2400_get(FREND) & 0x7;
 303:bluetooth_rxtx.c **** 		*data_len = 1;
 304:bluetooth_rxtx.c **** 		break;
 305:bluetooth_rxtx.c **** 
 306:bluetooth_rxtx.c **** 	case UBERTOOTH_SET_PALEVEL:
 307:bluetooth_rxtx.c **** 		if( request_params[0] < 8 ) {
 308:bluetooth_rxtx.c **** 			cc2400_set(FREND, 8 | request_params[0]);
 309:bluetooth_rxtx.c **** 		} else {
 310:bluetooth_rxtx.c **** 			return 0;
 311:bluetooth_rxtx.c **** 		}
 312:bluetooth_rxtx.c **** 		break;
 313:bluetooth_rxtx.c **** 
 314:bluetooth_rxtx.c **** 	case UBERTOOTH_RANGE_TEST:
 315:bluetooth_rxtx.c **** 		requested_mode = MODE_RANGE_TEST;
 316:bluetooth_rxtx.c **** 		break;
 317:bluetooth_rxtx.c **** 
 318:bluetooth_rxtx.c **** 	case UBERTOOTH_REPEATER:
ARM GAS  /var/folders/s6/4bph2j8d1nvcsgz5bgm0yhx00000gn/T//ccF5ee78.s 			page 7


 319:bluetooth_rxtx.c **** 		requested_mode = MODE_REPEATER;
 320:bluetooth_rxtx.c **** 		break;
 321:bluetooth_rxtx.c **** #endif
 322:bluetooth_rxtx.c **** 
 323:bluetooth_rxtx.c **** 	case UBERTOOTH_RANGE_CHECK:
 324:bluetooth_rxtx.c **** 		data[0] = rr.valid;
 325:bluetooth_rxtx.c **** 		data[1] = rr.request_pa;
 326:bluetooth_rxtx.c **** 		data[2] = rr.request_num;
 327:bluetooth_rxtx.c **** 		data[3] = rr.reply_pa;
 328:bluetooth_rxtx.c **** 		data[4] = rr.reply_num;
 329:bluetooth_rxtx.c **** 		*data_len = 5;
 330:bluetooth_rxtx.c **** 		break;
 331:bluetooth_rxtx.c **** 
 332:bluetooth_rxtx.c **** 	case UBERTOOTH_STOP:
 333:bluetooth_rxtx.c **** 		requested_mode = MODE_IDLE;
 334:bluetooth_rxtx.c **** 		break;
 335:bluetooth_rxtx.c **** 
 336:bluetooth_rxtx.c **** 	case UBERTOOTH_GET_MOD:
 337:bluetooth_rxtx.c **** 		data[0] = modulation;
 338:bluetooth_rxtx.c **** 		*data_len = 1;
 339:bluetooth_rxtx.c **** 		break;
 340:bluetooth_rxtx.c **** 
 341:bluetooth_rxtx.c **** 	case UBERTOOTH_SET_MOD:
 342:bluetooth_rxtx.c **** 		modulation = request_params[0];
 343:bluetooth_rxtx.c **** 		break;
 344:bluetooth_rxtx.c **** 
 345:bluetooth_rxtx.c **** 	case UBERTOOTH_GET_CHANNEL:
 346:bluetooth_rxtx.c **** 		data[0] = channel & 0xFF;
 347:bluetooth_rxtx.c **** 		data[1] = (channel >> 8) & 0xFF;
 348:bluetooth_rxtx.c **** 		*data_len = 2;
 349:bluetooth_rxtx.c **** 		break;
 350:bluetooth_rxtx.c **** 
 351:bluetooth_rxtx.c **** 	case UBERTOOTH_SET_CHANNEL:
 352:bluetooth_rxtx.c **** 		requested_channel = request_params[0];
 353:bluetooth_rxtx.c **** 		/* bluetooth band sweep mode, start at channel 2402 */
 354:bluetooth_rxtx.c **** 		if (requested_channel > MAX_FREQ) {
 355:bluetooth_rxtx.c **** 			hop_mode = HOP_SWEEP;
 356:bluetooth_rxtx.c **** 			requested_channel = 2402;
 357:bluetooth_rxtx.c **** 		}
 358:bluetooth_rxtx.c **** 		/* fixed channel mode, can be outside bluetooth band */
 359:bluetooth_rxtx.c **** 		else {
 360:bluetooth_rxtx.c **** 			hop_mode = HOP_NONE;
 361:bluetooth_rxtx.c **** 			requested_channel = MAX(requested_channel, MIN_FREQ);
 362:bluetooth_rxtx.c **** 			requested_channel = MIN(requested_channel, MAX_FREQ);
 363:bluetooth_rxtx.c **** 		}
 364:bluetooth_rxtx.c **** 
 365:bluetooth_rxtx.c **** 		le_adv_channel = requested_channel;
 366:bluetooth_rxtx.c **** 		if (mode != MODE_BT_FOLLOW_LE && mode != MODE_BOSS_MASTER_LE) {
 367:bluetooth_rxtx.c **** 			channel = requested_channel;
 368:bluetooth_rxtx.c **** 			requested_channel = 0;
 369:bluetooth_rxtx.c **** 
 370:bluetooth_rxtx.c **** 			/* CS threshold is mode-dependent. Update it after
 371:bluetooth_rxtx.c **** 			 * possible mode change. TODO - kludgy. */
 372:bluetooth_rxtx.c **** 			cs_threshold_calc_and_set(channel);
 373:bluetooth_rxtx.c **** 		}
 374:bluetooth_rxtx.c **** 		break;
 375:bluetooth_rxtx.c **** 
ARM GAS  /var/folders/s6/4bph2j8d1nvcsgz5bgm0yhx00000gn/T//ccF5ee78.s 			page 8


 376:bluetooth_rxtx.c **** 	case UBERTOOTH_SET_ISP:
 377:bluetooth_rxtx.c **** 		set_isp();
 378:bluetooth_rxtx.c **** 		*data_len = 0; /* should never return */
 379:bluetooth_rxtx.c **** 		break;
 380:bluetooth_rxtx.c **** 
 381:bluetooth_rxtx.c **** 	case UBERTOOTH_FLASH:
 382:bluetooth_rxtx.c **** 		bootloader_ctrl = DFU_MODE;
 383:bluetooth_rxtx.c **** 		requested_mode = MODE_RESET;
 384:bluetooth_rxtx.c **** 		break;
 385:bluetooth_rxtx.c **** 
 386:bluetooth_rxtx.c **** 	case UBERTOOTH_SPECAN:
 387:bluetooth_rxtx.c **** 		if (request_params[0] < 2049 || request_params[0] > 3072 ||
 388:bluetooth_rxtx.c **** 				request_params[1] < 2049 || request_params[1] > 3072 ||
 389:bluetooth_rxtx.c **** 				request_params[1] < request_params[0])
 390:bluetooth_rxtx.c **** 			return 0;
 391:bluetooth_rxtx.c **** 		low_freq = request_params[0];
 392:bluetooth_rxtx.c **** 		high_freq = request_params[1];
 393:bluetooth_rxtx.c **** 		requested_mode = MODE_SPECAN;
 394:bluetooth_rxtx.c **** 		*data_len = 0;
 395:bluetooth_rxtx.c **** 		break;
 396:bluetooth_rxtx.c **** 
 397:bluetooth_rxtx.c **** 	case UBERTOOTH_RX_GENERIC:
 398:bluetooth_rxtx.c **** 		requested_mode = MODE_RX_GENERIC;
 399:bluetooth_rxtx.c **** 		*data_len = 0;
 400:bluetooth_rxtx.c **** 		break;
 401:bluetooth_rxtx.c **** 
 402:bluetooth_rxtx.c **** 	case UBERTOOTH_LED_SPECAN:
 403:bluetooth_rxtx.c **** 		if (request_params[0] > 256)
 404:bluetooth_rxtx.c **** 			return 0;
 405:bluetooth_rxtx.c **** 		rssi_threshold = 54 - request_params[0];
 406:bluetooth_rxtx.c **** 		requested_mode = MODE_LED_SPECAN;
 407:bluetooth_rxtx.c **** 		*data_len = 0;
 408:bluetooth_rxtx.c **** 		break;
 409:bluetooth_rxtx.c **** 
 410:bluetooth_rxtx.c **** 	case UBERTOOTH_GET_REV_NUM:
 411:bluetooth_rxtx.c **** 		data[0] = 0x00;
 412:bluetooth_rxtx.c **** 		data[1] = 0x00;
 413:bluetooth_rxtx.c **** 
 414:bluetooth_rxtx.c **** 		length = (u8)strlen(GIT_REVISION);
 415:bluetooth_rxtx.c **** 		data[2] = length;
 416:bluetooth_rxtx.c **** 
 417:bluetooth_rxtx.c **** 		memcpy(&data[3], GIT_REVISION, length);
 418:bluetooth_rxtx.c **** 
 419:bluetooth_rxtx.c **** 		*data_len = 2 + 1 + length;
 420:bluetooth_rxtx.c **** 		break;
 421:bluetooth_rxtx.c **** 
 422:bluetooth_rxtx.c **** 	case UBERTOOTH_GET_COMPILE_INFO:
 423:bluetooth_rxtx.c **** 		length = (u8)strlen(compile_info);
 424:bluetooth_rxtx.c **** 		data[0] = length;
 425:bluetooth_rxtx.c **** 		memcpy(&data[1], compile_info, length);
 426:bluetooth_rxtx.c **** 		*data_len = 1 + length;
 427:bluetooth_rxtx.c **** 		break;
 428:bluetooth_rxtx.c **** 
 429:bluetooth_rxtx.c **** 	case UBERTOOTH_GET_BOARD_ID:
 430:bluetooth_rxtx.c **** 		data[0] = BOARD_ID;
 431:bluetooth_rxtx.c **** 		*data_len = 1;
 432:bluetooth_rxtx.c **** 		break;
ARM GAS  /var/folders/s6/4bph2j8d1nvcsgz5bgm0yhx00000gn/T//ccF5ee78.s 			page 9


 433:bluetooth_rxtx.c **** 
 434:bluetooth_rxtx.c **** 	case UBERTOOTH_SET_SQUELCH:
 435:bluetooth_rxtx.c **** 		cs_threshold_req = (int8_t)request_params[0];
 436:bluetooth_rxtx.c **** 		cs_threshold_calc_and_set(channel);
 437:bluetooth_rxtx.c **** 		break;
 438:bluetooth_rxtx.c **** 
 439:bluetooth_rxtx.c **** 	case UBERTOOTH_GET_SQUELCH:
 440:bluetooth_rxtx.c **** 		data[0] = cs_threshold_req;
 441:bluetooth_rxtx.c **** 		*data_len = 1;
 442:bluetooth_rxtx.c **** 		break;
 443:bluetooth_rxtx.c **** 
 444:bluetooth_rxtx.c **** 	case UBERTOOTH_SET_BDADDR:
 445:bluetooth_rxtx.c **** 		target.address = 0;
 446:bluetooth_rxtx.c **** 		target.syncword = 0;
 447:bluetooth_rxtx.c **** 		for(int i=0; i < 8; i++) {
 448:bluetooth_rxtx.c **** 			target.address |= (uint64_t)data[i] << 8*i;
 449:bluetooth_rxtx.c **** 		}
 450:bluetooth_rxtx.c **** 		for(int i=0; i < 8; i++) {
 451:bluetooth_rxtx.c **** 			target.syncword |= (uint64_t)data[i+8] << 8*i;
 452:bluetooth_rxtx.c **** 		}
 453:bluetooth_rxtx.c **** 		precalc();
 454:bluetooth_rxtx.c **** 		break;
 455:bluetooth_rxtx.c **** 
 456:bluetooth_rxtx.c **** 	case UBERTOOTH_START_HOPPING:
 457:bluetooth_rxtx.c **** 		clkn_offset = 0;
 458:bluetooth_rxtx.c **** 		for(int i=0; i < 4; i++) {
 459:bluetooth_rxtx.c **** 			clkn_offset <<= 8;
 460:bluetooth_rxtx.c **** 			clkn_offset |= data[i];
 461:bluetooth_rxtx.c **** 		}
 462:bluetooth_rxtx.c **** 		hop_mode = HOP_BLUETOOTH;
 463:bluetooth_rxtx.c **** 		dma_discard = 1;
 464:bluetooth_rxtx.c **** 		DIO_SSEL_SET;
 465:bluetooth_rxtx.c **** 		clk100ns_offset = (data[4] << 8) | (data[5] << 0);
 466:bluetooth_rxtx.c **** 		requested_mode = MODE_BT_FOLLOW;
 467:bluetooth_rxtx.c **** 		break;
 468:bluetooth_rxtx.c **** 
 469:bluetooth_rxtx.c **** 	case UBERTOOTH_AFH:
 470:bluetooth_rxtx.c **** 		hop_mode = HOP_AFH;
 471:bluetooth_rxtx.c **** 		requested_mode = MODE_AFH;
 472:bluetooth_rxtx.c **** 
 473:bluetooth_rxtx.c **** 		for(int i=0; i < 10; i++) {
 474:bluetooth_rxtx.c **** 			afh_map[i] = 0;
 475:bluetooth_rxtx.c **** 		}
 476:bluetooth_rxtx.c **** 		used_channels = 0;
 477:bluetooth_rxtx.c **** 		afh_enabled = 1;
 478:bluetooth_rxtx.c **** 		break;
 479:bluetooth_rxtx.c **** 
 480:bluetooth_rxtx.c **** 	case UBERTOOTH_HOP:
 481:bluetooth_rxtx.c **** 		do_hop = 1;
 482:bluetooth_rxtx.c **** 		break;
 483:bluetooth_rxtx.c **** 
 484:bluetooth_rxtx.c **** 	case UBERTOOTH_SET_CLOCK:
 485:bluetooth_rxtx.c **** 		clock = data[0] | data[1] << 8 | data[2] << 16 | data[3] << 24;
 486:bluetooth_rxtx.c **** 		clkn = clock;
 487:bluetooth_rxtx.c **** 		cs_threshold_calc_and_set(channel);
 488:bluetooth_rxtx.c **** 		break;
 489:bluetooth_rxtx.c **** 
ARM GAS  /var/folders/s6/4bph2j8d1nvcsgz5bgm0yhx00000gn/T//ccF5ee78.s 			page 10


 490:bluetooth_rxtx.c **** 	case UBERTOOTH_SET_AFHMAP:
 491:bluetooth_rxtx.c **** 		for(int i=0; i < 10; i++) {
 492:bluetooth_rxtx.c **** 			afh_map[i] = data[i];
 493:bluetooth_rxtx.c **** 		}
 494:bluetooth_rxtx.c **** 		afh_enabled = 1;
 495:bluetooth_rxtx.c **** 		*data_len = 10;
 496:bluetooth_rxtx.c **** 		break;
 497:bluetooth_rxtx.c **** 
 498:bluetooth_rxtx.c **** 	case UBERTOOTH_CLEAR_AFHMAP:
 499:bluetooth_rxtx.c **** 		for(int i=0; i < 10; i++) {
 500:bluetooth_rxtx.c **** 			afh_map[i] = 0;
 501:bluetooth_rxtx.c **** 		}
 502:bluetooth_rxtx.c **** 		afh_enabled = 0;
 503:bluetooth_rxtx.c **** 		*data_len = 10;
 504:bluetooth_rxtx.c **** 		break;
 505:bluetooth_rxtx.c **** 
 506:bluetooth_rxtx.c **** 	case UBERTOOTH_GET_CLOCK:
 507:bluetooth_rxtx.c **** 		clock = clkn;
 508:bluetooth_rxtx.c **** 		for(int i=0; i < 4; i++) {
 509:bluetooth_rxtx.c **** 			data[i] = (clock >> (8*i)) & 0xff;
 510:bluetooth_rxtx.c **** 		}
 511:bluetooth_rxtx.c **** 		*data_len = 4;
 512:bluetooth_rxtx.c **** 		break;
 513:bluetooth_rxtx.c **** 
 514:bluetooth_rxtx.c **** 	case UBERTOOTH_TRIM_CLOCK:
 515:bluetooth_rxtx.c **** 		clk100ns_offset = (data[0] << 8) | (data[1] << 0);
 516:bluetooth_rxtx.c **** 		break;
 517:bluetooth_rxtx.c **** 
 518:bluetooth_rxtx.c **** 	case UBERTOOTH_FIX_CLOCK_DRIFT:
 519:bluetooth_rxtx.c **** 		clk_drift_ppm += (int16_t)(data[0] << 8) | (data[1] << 0);
 520:bluetooth_rxtx.c **** 
 521:bluetooth_rxtx.c **** 		// Too slow
 522:bluetooth_rxtx.c **** 		if (clk_drift_ppm < 0) {
 523:bluetooth_rxtx.c **** 			clk_drift_correction = 320 / (uint16_t)(-clk_drift_ppm);
 524:bluetooth_rxtx.c **** 			clkn_next_drift_fix = clkn_last_drift_fix + clk_drift_correction;
 525:bluetooth_rxtx.c **** 		}
 526:bluetooth_rxtx.c **** 		// Too fast
 527:bluetooth_rxtx.c **** 		else if (clk_drift_ppm > 0) {
 528:bluetooth_rxtx.c **** 			clk_drift_correction = 320 / clk_drift_ppm;
 529:bluetooth_rxtx.c **** 			clkn_next_drift_fix = clkn_last_drift_fix + clk_drift_correction;
 530:bluetooth_rxtx.c **** 		}
 531:bluetooth_rxtx.c **** 		// Don't trim
 532:bluetooth_rxtx.c **** 		else {
 533:bluetooth_rxtx.c **** 			clk_drift_correction = 0;
 534:bluetooth_rxtx.c **** 			clkn_next_drift_fix = 0;
 535:bluetooth_rxtx.c **** 		}
 536:bluetooth_rxtx.c **** 
 537:bluetooth_rxtx.c **** 		break;
 538:bluetooth_rxtx.c **** 
 539:bluetooth_rxtx.c **** 	case UBERTOOTH_BTLE_SNIFFING:
 540:bluetooth_rxtx.c **** 		*data_len = 0;
 541:bluetooth_rxtx.c **** 
 542:bluetooth_rxtx.c **** 		do_hop = 0;
 543:bluetooth_rxtx.c **** 		hop_mode = HOP_BTLE;
 544:bluetooth_rxtx.c **** 		requested_mode = MODE_BT_FOLLOW_LE;
 545:bluetooth_rxtx.c **** 
 546:bluetooth_rxtx.c **** 		queue_init();
ARM GAS  /var/folders/s6/4bph2j8d1nvcsgz5bgm0yhx00000gn/T//ccF5ee78.s 			page 11


 547:bluetooth_rxtx.c **** 		cs_threshold_calc_and_set(channel);
 548:bluetooth_rxtx.c **** 		break;
 549:bluetooth_rxtx.c **** 
 550:bluetooth_rxtx.c **** 	case UBERTOOTH_BTLE_BOSS_MASTER:
 551:bluetooth_rxtx.c **** 		*data_len = 0;
 552:bluetooth_rxtx.c **** 
 553:bluetooth_rxtx.c **** 		do_hop = 0;
 554:bluetooth_rxtx.c **** 		hop_mode = HOP_BTLE;
 555:bluetooth_rxtx.c **** 		requested_mode = MODE_BOSS_MASTER_LE;
 556:bluetooth_rxtx.c **** 
 557:bluetooth_rxtx.c **** 		queue_init();
 558:bluetooth_rxtx.c **** 		cs_threshold_calc_and_set(channel);
 559:bluetooth_rxtx.c **** 		break;
 560:bluetooth_rxtx.c **** 
 561:bluetooth_rxtx.c **** 	case UBERTOOTH_GET_ACCESS_ADDRESS:
 562:bluetooth_rxtx.c **** 		for(int i=0; i < 4; i++) {
 563:bluetooth_rxtx.c **** 			data[i] = (le.access_address >> (8*i)) & 0xff;
 564:bluetooth_rxtx.c **** 		}
 565:bluetooth_rxtx.c **** 		*data_len = 4;
 566:bluetooth_rxtx.c **** 		break;
 567:bluetooth_rxtx.c **** 
 568:bluetooth_rxtx.c **** 	case UBERTOOTH_SET_ACCESS_ADDRESS:
 569:bluetooth_rxtx.c **** 		le_set_access_address(data[0] | data[1] << 8 | data[2] << 16 | data[3] << 24);
 570:bluetooth_rxtx.c **** 		le.target_set = 1;
 571:bluetooth_rxtx.c **** 		break;
 572:bluetooth_rxtx.c **** 
 573:bluetooth_rxtx.c **** 	case UBERTOOTH_DO_SOMETHING:
 574:bluetooth_rxtx.c **** 		// do something! just don't commit anything here
 575:bluetooth_rxtx.c **** 		break;
 576:bluetooth_rxtx.c **** 
 577:bluetooth_rxtx.c **** 	case UBERTOOTH_DO_SOMETHING_REPLY:
 578:bluetooth_rxtx.c **** 		// after you do something, tell me what you did!
 579:bluetooth_rxtx.c **** 		// don't commit here please
 580:bluetooth_rxtx.c **** 		data[0] = 0x13;
 581:bluetooth_rxtx.c **** 		data[1] = 0x37;
 582:bluetooth_rxtx.c **** 		*data_len = 2;
 583:bluetooth_rxtx.c **** 		break;
 584:bluetooth_rxtx.c **** 
 585:bluetooth_rxtx.c **** 	case UBERTOOTH_GET_CRC_VERIFY:
 586:bluetooth_rxtx.c **** 		data[0] = le.crc_verify ? 1 : 0;
 587:bluetooth_rxtx.c **** 		*data_len = 1;
 588:bluetooth_rxtx.c **** 		break;
 589:bluetooth_rxtx.c **** 
 590:bluetooth_rxtx.c **** 	case UBERTOOTH_SET_CRC_VERIFY:
 591:bluetooth_rxtx.c **** 		le.crc_verify = request_params[0] ? 1 : 0;
 592:bluetooth_rxtx.c **** 		break;
 593:bluetooth_rxtx.c **** 
 594:bluetooth_rxtx.c **** 	case UBERTOOTH_POLL:
 595:bluetooth_rxtx.c **** 		p = dequeue();
 596:bluetooth_rxtx.c **** 		if (p != NULL) {
 597:bluetooth_rxtx.c **** 			memcpy(data, (void *)p, sizeof(usb_pkt_rx));
 598:bluetooth_rxtx.c **** 			*data_len = sizeof(usb_pkt_rx);
 599:bluetooth_rxtx.c **** 		} else {
 600:bluetooth_rxtx.c **** 			data[0] = 0;
 601:bluetooth_rxtx.c **** 			*data_len = 1;
 602:bluetooth_rxtx.c **** 		}
 603:bluetooth_rxtx.c **** 		break;
ARM GAS  /var/folders/s6/4bph2j8d1nvcsgz5bgm0yhx00000gn/T//ccF5ee78.s 			page 12


 604:bluetooth_rxtx.c **** 
 605:bluetooth_rxtx.c **** 	case UBERTOOTH_BTLE_PROMISC:
 606:bluetooth_rxtx.c **** 		*data_len = 0;
 607:bluetooth_rxtx.c **** 
 608:bluetooth_rxtx.c **** 		hop_mode = HOP_NONE;
 609:bluetooth_rxtx.c **** 		requested_mode = MODE_BT_PROMISC_LE;
 610:bluetooth_rxtx.c **** 
 611:bluetooth_rxtx.c **** 		queue_init();
 612:bluetooth_rxtx.c **** 		cs_threshold_calc_and_set(channel);
 613:bluetooth_rxtx.c **** 		break;
 614:bluetooth_rxtx.c **** 
 615:bluetooth_rxtx.c **** 	case UBERTOOTH_READ_REGISTER:
 616:bluetooth_rxtx.c **** 		reg_val = cc2400_get(request_params[0]);
 617:bluetooth_rxtx.c **** 		data[0] = (reg_val >> 8) & 0xff;
 618:bluetooth_rxtx.c **** 		data[1] = reg_val & 0xff;
 619:bluetooth_rxtx.c **** 		*data_len = 2;
 620:bluetooth_rxtx.c **** 		break;
 621:bluetooth_rxtx.c **** 
 622:bluetooth_rxtx.c **** 	case UBERTOOTH_WRITE_REGISTER:
 623:bluetooth_rxtx.c **** 		cc2400_set(request_params[0] & 0xff, request_params[1]);
 624:bluetooth_rxtx.c **** 		break;
 625:bluetooth_rxtx.c **** 
 626:bluetooth_rxtx.c **** 	case UBERTOOTH_WRITE_REGISTERS:
 627:bluetooth_rxtx.c **** 		for(i=0; i<request_params[0]; i++) {
 628:bluetooth_rxtx.c **** 			reg_val = (data[(i*3)+1] << 8) | data[(i*3)+2];
 629:bluetooth_rxtx.c **** 			cc2400_set(data[i*3], reg_val);
 630:bluetooth_rxtx.c **** 		}
 631:bluetooth_rxtx.c **** 		break;
 632:bluetooth_rxtx.c **** 
 633:bluetooth_rxtx.c **** 	case UBERTOOTH_READ_ALL_REGISTERS:
 634:bluetooth_rxtx.c **** 		#define MAX_READ_REG 0x2d
 635:bluetooth_rxtx.c **** 		for(i=0; i<=MAX_READ_REG; i++) {
 636:bluetooth_rxtx.c **** 			reg_val = cc2400_get(i);
 637:bluetooth_rxtx.c **** 			data[i*3] = i;
 638:bluetooth_rxtx.c **** 			data[(i*3)+1] = (reg_val >> 8) & 0xff;
 639:bluetooth_rxtx.c **** 			data[(i*3)+2] = reg_val & 0xff;
 640:bluetooth_rxtx.c **** 		}
 641:bluetooth_rxtx.c **** 		*data_len = MAX_READ_REG*3;
 642:bluetooth_rxtx.c **** 		break;
 643:bluetooth_rxtx.c **** 
 644:bluetooth_rxtx.c **** 	case UBERTOOTH_TX_GENERIC_PACKET:
 645:bluetooth_rxtx.c **** 		i = 7 + data[6];
 646:bluetooth_rxtx.c **** 		memcpy(&tx_pkt, data, i);
 647:bluetooth_rxtx.c **** 		//tx_pkt.channel = data[4] << 8 | data[5];
 648:bluetooth_rxtx.c **** 		requested_mode = MODE_TX_GENERIC;
 649:bluetooth_rxtx.c **** 		*data_len = 0;
 650:bluetooth_rxtx.c **** 		break;
 651:bluetooth_rxtx.c **** 
 652:bluetooth_rxtx.c **** 	case UBERTOOTH_BTLE_SLAVE:
 653:bluetooth_rxtx.c **** 		memcpy(slave_mac_address, data, 6);
 654:bluetooth_rxtx.c **** 		requested_mode = MODE_BT_SLAVE_LE;
 655:bluetooth_rxtx.c **** 		break;
 656:bluetooth_rxtx.c **** 
 657:bluetooth_rxtx.c **** 	case UBERTOOTH_BTLE_BOSS_SLAVE:
 658:bluetooth_rxtx.c **** 		memcpy(slave_mac_address, data, 6);
 659:bluetooth_rxtx.c **** 		requested_mode = MODE_BOSS_SLAVE_LE;
 660:bluetooth_rxtx.c **** 		break;
ARM GAS  /var/folders/s6/4bph2j8d1nvcsgz5bgm0yhx00000gn/T//ccF5ee78.s 			page 13


 661:bluetooth_rxtx.c **** 
 662:bluetooth_rxtx.c **** 	case UBERTOOTH_BTLE_SET_TARGET:
 663:bluetooth_rxtx.c **** 		// Addresses appear in packets in reverse-octet order.
 664:bluetooth_rxtx.c **** 		// Store the target address in reverse order so that we can do a simple memcmp later
 665:bluetooth_rxtx.c **** 		le.target[0] = data[5];
 666:bluetooth_rxtx.c **** 		le.target[1] = data[4];
 667:bluetooth_rxtx.c **** 		le.target[2] = data[3];
 668:bluetooth_rxtx.c **** 		le.target[3] = data[2];
 669:bluetooth_rxtx.c **** 		le.target[4] = data[1];
 670:bluetooth_rxtx.c **** 		le.target[5] = data[0];
 671:bluetooth_rxtx.c **** 		le.target_set = 1;
 672:bluetooth_rxtx.c **** 		break;
 673:bluetooth_rxtx.c **** 
 674:bluetooth_rxtx.c **** #ifdef TX_ENABLE
 675:bluetooth_rxtx.c **** 	case UBERTOOTH_JAM_MODE:
 676:bluetooth_rxtx.c **** 		jam_mode = request_params[0];
 677:bluetooth_rxtx.c **** 		break;
 678:bluetooth_rxtx.c **** #endif
 679:bluetooth_rxtx.c **** 
 680:bluetooth_rxtx.c **** 	case UBERTOOTH_EGO:
 681:bluetooth_rxtx.c **** #ifndef TX_ENABLE
 682:bluetooth_rxtx.c **** 		if (ego_mode == EGO_JAM)
 683:bluetooth_rxtx.c **** 			return 0;
 684:bluetooth_rxtx.c **** #endif
 685:bluetooth_rxtx.c **** 		requested_mode = MODE_EGO;
 686:bluetooth_rxtx.c **** 		ego_mode = request_params[0];
 687:bluetooth_rxtx.c **** 		break;
 688:bluetooth_rxtx.c **** 
 689:bluetooth_rxtx.c **** 	default:
 690:bluetooth_rxtx.c **** 		return 0;
 691:bluetooth_rxtx.c **** 	}
 692:bluetooth_rxtx.c **** 	return 1;
 693:bluetooth_rxtx.c **** }
 694:bluetooth_rxtx.c **** 
 695:bluetooth_rxtx.c **** /* Update CLKN. */
 696:bluetooth_rxtx.c **** void TIMER0_IRQHandler()
 697:bluetooth_rxtx.c **** {
 698:bluetooth_rxtx.c **** 	if (T0IR & TIR_MR0_Interrupt) {
 699:bluetooth_rxtx.c **** 
 700:bluetooth_rxtx.c **** 		clkn += clkn_offset + 1;
 701:bluetooth_rxtx.c **** 		clkn_offset = 0;
 702:bluetooth_rxtx.c **** 
 703:bluetooth_rxtx.c **** 		uint32_t le_clk = (clkn - le.conn_epoch) & 0x03;
 704:bluetooth_rxtx.c **** 
 705:bluetooth_rxtx.c **** 		/* Trigger hop based on mode */
 706:bluetooth_rxtx.c **** 
 707:bluetooth_rxtx.c **** 		/* NONE or SWEEP -> 25 Hz */
 708:bluetooth_rxtx.c **** 		if (hop_mode == HOP_NONE || hop_mode == HOP_SWEEP) {
 709:bluetooth_rxtx.c **** 			if ((clkn & 0x7f) == 0)
 710:bluetooth_rxtx.c **** 				do_hop = 1;
 711:bluetooth_rxtx.c **** 		}
 712:bluetooth_rxtx.c **** 		/* BLUETOOTH -> 1600 Hz */
 713:bluetooth_rxtx.c **** 		else if (hop_mode == HOP_BLUETOOTH) {
 714:bluetooth_rxtx.c **** 			if ((clkn & 0x1) == 0)
 715:bluetooth_rxtx.c **** 				do_hop = 1;
 716:bluetooth_rxtx.c **** 		}
 717:bluetooth_rxtx.c **** 		/* BLUETOOTH Low Energy -> 7.5ms - 4.0s in multiples of 1.25 ms */
ARM GAS  /var/folders/s6/4bph2j8d1nvcsgz5bgm0yhx00000gn/T//ccF5ee78.s 			page 14


 718:bluetooth_rxtx.c **** 		else if (hop_mode == HOP_BTLE) {
 719:bluetooth_rxtx.c **** 			// Only hop if connected
 720:bluetooth_rxtx.c **** 			if (le.link_state == LINK_CONNECTED && le_clk == 0) {
 721:bluetooth_rxtx.c **** 				--le.interval_timer;
 722:bluetooth_rxtx.c **** 				if (le.interval_timer == 0) {
 723:bluetooth_rxtx.c **** 					do_hop = 1;
 724:bluetooth_rxtx.c **** 					++le.conn_count;
 725:bluetooth_rxtx.c **** 					le.interval_timer = le.conn_interval;
 726:bluetooth_rxtx.c **** 				} else {
 727:bluetooth_rxtx.c **** 					TXLED_CLR; // hack!
 728:bluetooth_rxtx.c **** 				}
 729:bluetooth_rxtx.c **** 			}
 730:bluetooth_rxtx.c **** 		}
 731:bluetooth_rxtx.c **** 		else if (hop_mode == HOP_AFH) {
 732:bluetooth_rxtx.c **** 			if( (last_hop + hop_timeout) == clkn ) {
 733:bluetooth_rxtx.c **** 				do_hop = 1;
 734:bluetooth_rxtx.c **** 			}
 735:bluetooth_rxtx.c **** 		}
 736:bluetooth_rxtx.c **** 
 737:bluetooth_rxtx.c **** 		// Fix linear clock drift deviation
 738:bluetooth_rxtx.c **** 		if(clkn_next_drift_fix != 0 && clk100ns_offset == 0) {
 739:bluetooth_rxtx.c **** 			if(clkn >= clkn_next_drift_fix) {
 740:bluetooth_rxtx.c **** 
 741:bluetooth_rxtx.c **** 				// Too fast
 742:bluetooth_rxtx.c **** 				if(clk_drift_ppm >= 0) {
 743:bluetooth_rxtx.c **** 					clk100ns_offset = 1;
 744:bluetooth_rxtx.c **** 				}
 745:bluetooth_rxtx.c **** 
 746:bluetooth_rxtx.c **** 				// Too slow
 747:bluetooth_rxtx.c **** 				else {
 748:bluetooth_rxtx.c **** 					clk100ns_offset = 6249;
 749:bluetooth_rxtx.c **** 				}
 750:bluetooth_rxtx.c **** 				clkn_last_drift_fix = clkn;
 751:bluetooth_rxtx.c **** 				clkn_next_drift_fix = clkn_last_drift_fix + clk_drift_correction;
 752:bluetooth_rxtx.c **** 			}
 753:bluetooth_rxtx.c **** 		}
 754:bluetooth_rxtx.c **** 
 755:bluetooth_rxtx.c **** 		// Negative clock correction
 756:bluetooth_rxtx.c **** 		if(clk100ns_offset > 3124)
 757:bluetooth_rxtx.c **** 			clkn += 2;
 758:bluetooth_rxtx.c **** 
 759:bluetooth_rxtx.c **** 		T0MR0 = 3124 + clk100ns_offset;
 760:bluetooth_rxtx.c **** 		clk100ns_offset = 0;
 761:bluetooth_rxtx.c **** 
 762:bluetooth_rxtx.c **** 		/* Ack interrupt */
 763:bluetooth_rxtx.c **** 		T0IR = TIR_MR0_Interrupt;
 764:bluetooth_rxtx.c **** 	}
 765:bluetooth_rxtx.c **** }
 766:bluetooth_rxtx.c **** 
 767:bluetooth_rxtx.c **** /* EINT3 handler is also defined in ubertooth.c for TC13BADGE. */
 768:bluetooth_rxtx.c **** #ifndef TC13BADGE
 769:bluetooth_rxtx.c **** void EINT3_IRQHandler()
 770:bluetooth_rxtx.c **** {
 771:bluetooth_rxtx.c **** 	/* TODO - check specific source of shared interrupt */
 772:bluetooth_rxtx.c **** 	IO2IntClr   = PIN_GIO6; // clear interrupt
 773:bluetooth_rxtx.c **** 	DIO_SSEL_CLR;           // enable SPI
 774:bluetooth_rxtx.c **** 	cs_trigger  = 1;        // signal trigger
ARM GAS  /var/folders/s6/4bph2j8d1nvcsgz5bgm0yhx00000gn/T//ccF5ee78.s 			page 15


 775:bluetooth_rxtx.c **** 	if (hop_mode == HOP_BLUETOOTH)
 776:bluetooth_rxtx.c **** 		dma_discard = 0;
 777:bluetooth_rxtx.c **** 
 778:bluetooth_rxtx.c **** }
 779:bluetooth_rxtx.c **** #endif // TC13BADGE
 780:bluetooth_rxtx.c **** 
 781:bluetooth_rxtx.c **** /*
 782:bluetooth_rxtx.c ****  * Sleep (busy wait) for 'millis' milliseconds
 783:bluetooth_rxtx.c ****  * Needs clkn. Be sure to call clkn_init() before using it.
 784:bluetooth_rxtx.c ****  */
 785:bluetooth_rxtx.c **** static void msleep(uint32_t millis)
 786:bluetooth_rxtx.c **** {
 787:bluetooth_rxtx.c **** 	uint32_t now = (clkn & 0xffffff);
 788:bluetooth_rxtx.c **** 	uint32_t stop_at = now + millis * 10000 / 3125; // millis -> clkn ticks
 789:bluetooth_rxtx.c **** 
 790:bluetooth_rxtx.c **** 	// handle clkn overflow
 791:bluetooth_rxtx.c **** 	if (stop_at >= ((uint32_t)1<<28)) {
 792:bluetooth_rxtx.c **** 		stop_at -= ((uint32_t)1<<28);
 793:bluetooth_rxtx.c **** 		while ((clkn & 0xffffff) >= now || (clkn & 0xffffff) < stop_at);
 794:bluetooth_rxtx.c **** 	} else {
 795:bluetooth_rxtx.c **** 		while ((clkn & 0xffffff) < stop_at);
 796:bluetooth_rxtx.c **** 	}
 797:bluetooth_rxtx.c **** }
 798:bluetooth_rxtx.c **** 
 799:bluetooth_rxtx.c **** void DMA_IRQHandler()
 800:bluetooth_rxtx.c **** {
 801:bluetooth_rxtx.c **** 	if ( mode == MODE_RX_SYMBOLS
 802:bluetooth_rxtx.c **** 	   || mode == MODE_BT_FOLLOW
 803:bluetooth_rxtx.c **** 	   || mode == MODE_SPECAN
 804:bluetooth_rxtx.c **** 	   || mode == MODE_BT_FOLLOW_LE
 805:bluetooth_rxtx.c **** 	   || mode == MODE_BOSS_SLAVE_LE
 806:bluetooth_rxtx.c **** 	   || mode == MODE_BT_PROMISC_LE
 807:bluetooth_rxtx.c **** 	   || mode == MODE_BT_SLAVE_LE
 808:bluetooth_rxtx.c **** 	   || mode == MODE_BOSS_MASTER_LE
 809:bluetooth_rxtx.c **** 	   || mode == MODE_RX_GENERIC)
 810:bluetooth_rxtx.c **** 	{
 811:bluetooth_rxtx.c **** 		/* interrupt on channel 0 */
 812:bluetooth_rxtx.c **** 		if (DMACIntStat & (1 << 0)) {
 813:bluetooth_rxtx.c **** 			if (DMACIntTCStat & (1 << 0)) {
 814:bluetooth_rxtx.c **** 				DMACIntTCClear = (1 << 0);
 815:bluetooth_rxtx.c **** 
 816:bluetooth_rxtx.c **** 				if (hop_mode == HOP_BLUETOOTH)
 817:bluetooth_rxtx.c **** 					DIO_SSEL_SET;
 818:bluetooth_rxtx.c **** 
 819:bluetooth_rxtx.c **** 				idle_buf_clk100ns  = CLK100NS;
 820:bluetooth_rxtx.c **** 				idle_buf_clkn_high = (clkn >> 20) & 0xff;
 821:bluetooth_rxtx.c **** 				idle_buf_channel   = channel;
 822:bluetooth_rxtx.c **** 
 823:bluetooth_rxtx.c **** 				/* Keep buffer swapping in sync with DMA. */
 824:bluetooth_rxtx.c **** 				volatile uint8_t* tmp = active_rxbuf;
 825:bluetooth_rxtx.c **** 				active_rxbuf = idle_rxbuf;
 826:bluetooth_rxtx.c **** 				idle_rxbuf = tmp;
 827:bluetooth_rxtx.c **** 
 828:bluetooth_rxtx.c **** 				++rx_tc;
 829:bluetooth_rxtx.c **** 			}
 830:bluetooth_rxtx.c **** 			if (DMACIntErrStat & (1 << 0)) {
 831:bluetooth_rxtx.c **** 				DMACIntErrClr = (1 << 0);
ARM GAS  /var/folders/s6/4bph2j8d1nvcsgz5bgm0yhx00000gn/T//ccF5ee78.s 			page 16


 832:bluetooth_rxtx.c **** 				++rx_err;
 833:bluetooth_rxtx.c **** 			}
 834:bluetooth_rxtx.c **** 		}
 835:bluetooth_rxtx.c **** 	}
 836:bluetooth_rxtx.c **** }
 837:bluetooth_rxtx.c **** 
 838:bluetooth_rxtx.c **** static void cc2400_idle()
 839:bluetooth_rxtx.c **** {
 840:bluetooth_rxtx.c **** 	cc2400_strobe(SRFOFF);
 841:bluetooth_rxtx.c **** 	while ((cc2400_status() & FS_LOCK)); // need to wait for unlock?
 842:bluetooth_rxtx.c **** 
 843:bluetooth_rxtx.c **** #ifdef UBERTOOTH_ONE
 844:bluetooth_rxtx.c **** 	PAEN_CLR;
 845:bluetooth_rxtx.c **** 	HGM_CLR;
 846:bluetooth_rxtx.c **** #endif
 847:bluetooth_rxtx.c **** 
 848:bluetooth_rxtx.c **** 	RXLED_CLR;
 849:bluetooth_rxtx.c **** 	TXLED_CLR;
 850:bluetooth_rxtx.c **** 	USRLED_CLR;
 851:bluetooth_rxtx.c **** 
 852:bluetooth_rxtx.c **** 	clkn_stop();
 853:bluetooth_rxtx.c **** 	dio_ssp_stop();
 854:bluetooth_rxtx.c **** 	cs_reset();
 855:bluetooth_rxtx.c **** 	rssi_reset();
 856:bluetooth_rxtx.c **** 
 857:bluetooth_rxtx.c **** 	/* hopping stuff */
 858:bluetooth_rxtx.c **** 	hop_mode = HOP_NONE;
 859:bluetooth_rxtx.c **** 	do_hop = 0;
 860:bluetooth_rxtx.c **** 	channel = 2441;
 861:bluetooth_rxtx.c **** 	hop_direct_channel = 0;
 862:bluetooth_rxtx.c **** 	hop_timeout = 158;
 863:bluetooth_rxtx.c **** 	requested_channel = 0;
 864:bluetooth_rxtx.c **** 	le_adv_channel = 2402;
 865:bluetooth_rxtx.c **** 
 866:bluetooth_rxtx.c **** 
 867:bluetooth_rxtx.c **** 	/* bulk USB stuff */
 868:bluetooth_rxtx.c **** 	idle_buf_clkn_high = 0;
 869:bluetooth_rxtx.c **** 	idle_buf_clk100ns = 0;
 870:bluetooth_rxtx.c **** 	idle_buf_channel = 0;
 871:bluetooth_rxtx.c **** 	dma_discard = 0;
 872:bluetooth_rxtx.c **** 	status = 0;
 873:bluetooth_rxtx.c **** 
 874:bluetooth_rxtx.c **** 	/* operation mode */
 875:bluetooth_rxtx.c **** 	mode = MODE_IDLE;
 876:bluetooth_rxtx.c **** 	requested_mode = MODE_IDLE;
 877:bluetooth_rxtx.c **** 	jam_mode = JAM_NONE;
 878:bluetooth_rxtx.c **** 	ego_mode = EGO_FOLLOW;
 879:bluetooth_rxtx.c **** 
 880:bluetooth_rxtx.c **** 	modulation = MOD_BT_BASIC_RATE;
 881:bluetooth_rxtx.c **** 
 882:bluetooth_rxtx.c **** 	/* specan stuff */
 883:bluetooth_rxtx.c **** 	low_freq = 2400;
 884:bluetooth_rxtx.c **** 	high_freq = 2483;
 885:bluetooth_rxtx.c **** 	rssi_threshold = -30;
 886:bluetooth_rxtx.c **** 
 887:bluetooth_rxtx.c **** 	target.address = 0;
 888:bluetooth_rxtx.c **** 	target.syncword = 0;
ARM GAS  /var/folders/s6/4bph2j8d1nvcsgz5bgm0yhx00000gn/T//ccF5ee78.s 			page 17


 889:bluetooth_rxtx.c **** }
 890:bluetooth_rxtx.c **** 
 891:bluetooth_rxtx.c **** /* start un-buffered rx */
 892:bluetooth_rxtx.c **** static void cc2400_rx()
 893:bluetooth_rxtx.c **** {
 894:bluetooth_rxtx.c **** 	u16 mdmctrl = 0;
 895:bluetooth_rxtx.c **** 
 896:bluetooth_rxtx.c **** 	if((modulation == MOD_BT_BASIC_RATE) || (modulation == MOD_BT_LOW_ENERGY)) {
 897:bluetooth_rxtx.c **** 		if (modulation == MOD_BT_BASIC_RATE) {
 898:bluetooth_rxtx.c **** 			mdmctrl = 0x0029; // 160 kHz frequency deviation
 899:bluetooth_rxtx.c **** 		} else if (modulation == MOD_BT_LOW_ENERGY) {
 900:bluetooth_rxtx.c **** 			mdmctrl = 0x0040; // 250 kHz frequency deviation
 901:bluetooth_rxtx.c **** 		}
 902:bluetooth_rxtx.c **** 		cc2400_set(MANAND,  0x7fff);
 903:bluetooth_rxtx.c **** 		cc2400_set(LMTST,   0x2b22);
 904:bluetooth_rxtx.c **** 		cc2400_set(MDMTST0, 0x134b); // without PRNG
 905:bluetooth_rxtx.c **** 		cc2400_set(GRMDM,   0x0101); // un-buffered mode, GFSK
 906:bluetooth_rxtx.c **** 		// 0 00 00 0 010 00 0 00 0 1
 907:bluetooth_rxtx.c **** 		//      |  | |   |  +--------> CRC off
 908:bluetooth_rxtx.c **** 		//      |  | |   +-----------> sync word: 8 MSB bits of SYNC_WORD
 909:bluetooth_rxtx.c **** 		//      |  | +---------------> 2 preamble bytes of 01010101
 910:bluetooth_rxtx.c **** 		//      |  +-----------------> not packet mode
 911:bluetooth_rxtx.c **** 			//      +--------------------> un-buffered mode
 912:bluetooth_rxtx.c **** 		cc2400_set(FSDIV,   channel - 1); // 1 MHz IF
 913:bluetooth_rxtx.c **** 		cc2400_set(MDMCTRL, mdmctrl);
 914:bluetooth_rxtx.c **** 	}
 915:bluetooth_rxtx.c **** 
 916:bluetooth_rxtx.c **** 	// Set up CS register
 917:bluetooth_rxtx.c **** 	cs_threshold_calc_and_set(channel);
 918:bluetooth_rxtx.c **** 
 919:bluetooth_rxtx.c **** 	clkn_start();
 920:bluetooth_rxtx.c **** 
 921:bluetooth_rxtx.c **** 	while (!(cc2400_status() & XOSC16M_STABLE));
 922:bluetooth_rxtx.c **** 	cc2400_strobe(SFSON);
 923:bluetooth_rxtx.c **** 	while (!(cc2400_status() & FS_LOCK));
 924:bluetooth_rxtx.c **** 	cc2400_strobe(SRX);
 925:bluetooth_rxtx.c **** #ifdef UBERTOOTH_ONE
 926:bluetooth_rxtx.c **** 	PAEN_SET;
 927:bluetooth_rxtx.c **** 	HGM_SET;
 928:bluetooth_rxtx.c **** #endif
 929:bluetooth_rxtx.c **** }
 930:bluetooth_rxtx.c **** 
 931:bluetooth_rxtx.c **** /* start un-buffered rx */
 932:bluetooth_rxtx.c **** static void cc2400_rx_sync(u32 sync)
 933:bluetooth_rxtx.c **** {
 934:bluetooth_rxtx.c **** 	u16 grmdm, mdmctrl;
 935:bluetooth_rxtx.c **** 
 936:bluetooth_rxtx.c **** 	if (modulation == MOD_BT_BASIC_RATE) {
 937:bluetooth_rxtx.c **** 		mdmctrl = 0x0029; // 160 kHz frequency deviation
 938:bluetooth_rxtx.c **** 		grmdm = 0x0461; // un-buffered mode, packet w/ sync word detection
 939:bluetooth_rxtx.c **** 		// 0 00 00 1 000 11 0 00 0 1
 940:bluetooth_rxtx.c **** 		//   |  |  | |   |  +--------> CRC off
 941:bluetooth_rxtx.c **** 		//   |  |  | |   +-----------> sync word: 32 MSB bits of SYNC_WORD
 942:bluetooth_rxtx.c **** 		//   |  |  | +---------------> 0 preamble bytes of 01010101
 943:bluetooth_rxtx.c **** 		//   |  |  +-----------------> packet mode
 944:bluetooth_rxtx.c **** 		//   |  +--------------------> un-buffered mode
 945:bluetooth_rxtx.c **** 		//   +-----------------------> sync error bits: 0
ARM GAS  /var/folders/s6/4bph2j8d1nvcsgz5bgm0yhx00000gn/T//ccF5ee78.s 			page 18


 946:bluetooth_rxtx.c **** 
 947:bluetooth_rxtx.c **** 	} else if (modulation == MOD_BT_LOW_ENERGY) {
 948:bluetooth_rxtx.c **** 		mdmctrl = 0x0040; // 250 kHz frequency deviation
 949:bluetooth_rxtx.c **** 		grmdm = 0x0561; // un-buffered mode, packet w/ sync word detection
 950:bluetooth_rxtx.c **** 		// 0 00 00 1 010 11 0 00 0 1
 951:bluetooth_rxtx.c **** 		//   |  |  | |   |  +--------> CRC off
 952:bluetooth_rxtx.c **** 		//   |  |  | |   +-----------> sync word: 32 MSB bits of SYNC_WORD
 953:bluetooth_rxtx.c **** 		//   |  |  | +---------------> 2 preamble bytes of 01010101
 954:bluetooth_rxtx.c **** 		//   |  |  +-----------------> packet mode
 955:bluetooth_rxtx.c **** 		//   |  +--------------------> un-buffered mode
 956:bluetooth_rxtx.c **** 		//   +-----------------------> sync error bits: 0
 957:bluetooth_rxtx.c **** 
 958:bluetooth_rxtx.c **** 	} else {
 959:bluetooth_rxtx.c **** 		/* oops */
 960:bluetooth_rxtx.c **** 		return;
 961:bluetooth_rxtx.c **** 	}
 962:bluetooth_rxtx.c **** 
 963:bluetooth_rxtx.c **** 	cc2400_set(MANAND,  0x7fff);
 964:bluetooth_rxtx.c **** 	cc2400_set(LMTST,   0x2b22);
 965:bluetooth_rxtx.c **** 
 966:bluetooth_rxtx.c **** 	cc2400_set(MDMTST0, 0x124b);
 967:bluetooth_rxtx.c **** 	// 1      2      4b
 968:bluetooth_rxtx.c **** 	// 00 0 1 0 0 10 01001011
 969:bluetooth_rxtx.c **** 	//    | | | | |  +---------> AFC_DELTA = ??
 970:bluetooth_rxtx.c **** 	//    | | | | +------------> AFC settling = 4 pairs (8 bit preamble)
 971:bluetooth_rxtx.c **** 	//    | | | +--------------> no AFC adjust on packet
 972:bluetooth_rxtx.c **** 	//    | | +----------------> do not invert data
 973:bluetooth_rxtx.c **** 	//    | +------------------> TX IF freq 1 0Hz
 974:bluetooth_rxtx.c **** 	//    +--------------------> PRNG off
 975:bluetooth_rxtx.c **** 	//
 976:bluetooth_rxtx.c **** 	// ref: CC2400 datasheet page 67
 977:bluetooth_rxtx.c **** 	// AFC settling explained page 41/42
 978:bluetooth_rxtx.c **** 
 979:bluetooth_rxtx.c **** 	cc2400_set(GRMDM,   grmdm);
 980:bluetooth_rxtx.c **** 
 981:bluetooth_rxtx.c **** 	cc2400_set(SYNCL,   sync & 0xffff);
 982:bluetooth_rxtx.c **** 	cc2400_set(SYNCH,   (sync >> 16) & 0xffff);
 983:bluetooth_rxtx.c **** 
 984:bluetooth_rxtx.c **** 	cc2400_set(FSDIV,   channel - 1); // 1 MHz IF
 985:bluetooth_rxtx.c **** 	cc2400_set(MDMCTRL, mdmctrl);
 986:bluetooth_rxtx.c **** 
 987:bluetooth_rxtx.c **** 	// Set up CS register
 988:bluetooth_rxtx.c **** 	cs_threshold_calc_and_set(channel);
 989:bluetooth_rxtx.c **** 
 990:bluetooth_rxtx.c **** 	clkn_start();
 991:bluetooth_rxtx.c **** 
 992:bluetooth_rxtx.c **** 	while (!(cc2400_status() & XOSC16M_STABLE));
 993:bluetooth_rxtx.c **** 	cc2400_strobe(SFSON);
 994:bluetooth_rxtx.c **** 	while (!(cc2400_status() & FS_LOCK));
 995:bluetooth_rxtx.c **** 	cc2400_strobe(SRX);
 996:bluetooth_rxtx.c **** #ifdef UBERTOOTH_ONE
 997:bluetooth_rxtx.c **** 	PAEN_SET;
 998:bluetooth_rxtx.c **** 	HGM_SET;
 999:bluetooth_rxtx.c **** #endif
1000:bluetooth_rxtx.c **** }
1001:bluetooth_rxtx.c **** 
1002:bluetooth_rxtx.c **** /* start buffered tx */
ARM GAS  /var/folders/s6/4bph2j8d1nvcsgz5bgm0yhx00000gn/T//ccF5ee78.s 			page 19


1003:bluetooth_rxtx.c **** static void cc2400_tx_sync(uint32_t sync)
1004:bluetooth_rxtx.c **** {
1005:bluetooth_rxtx.c **** #ifdef TX_ENABLE
1006:bluetooth_rxtx.c **** 	// Bluetooth-like modulation
1007:bluetooth_rxtx.c **** 	cc2400_set(MANAND,  0x7fff);
1008:bluetooth_rxtx.c **** 	cc2400_set(LMTST,   0x2b22);    // LNA and receive mixers test register
1009:bluetooth_rxtx.c **** 	cc2400_set(MDMTST0, 0x134b);    // no PRNG
1010:bluetooth_rxtx.c **** 
1011:bluetooth_rxtx.c **** 	cc2400_set(GRMDM,   0x0c01);
1012:bluetooth_rxtx.c **** 	// 0 00 01 1 000 00 0 00 0 1
1013:bluetooth_rxtx.c **** 	//      |  | |   |  +--------> CRC off
1014:bluetooth_rxtx.c **** 	//      |  | |   +-----------> sync word: 8 MSB bits of SYNC_WORD
1015:bluetooth_rxtx.c **** 	//      |  | +---------------> 0 preamble bytes of 01010101
1016:bluetooth_rxtx.c **** 	//      |  +-----------------> packet mode
1017:bluetooth_rxtx.c **** 	//      +--------------------> buffered mode
1018:bluetooth_rxtx.c **** 
1019:bluetooth_rxtx.c **** 	cc2400_set(SYNCL,   sync & 0xffff);
1020:bluetooth_rxtx.c **** 	cc2400_set(SYNCH,   (sync >> 16) & 0xffff);
1021:bluetooth_rxtx.c **** 
1022:bluetooth_rxtx.c **** 	cc2400_set(FSDIV,   channel);
1023:bluetooth_rxtx.c **** 	cc2400_set(FREND,   0b1011);    // amplifier level (-7 dBm, picked from hat)
1024:bluetooth_rxtx.c **** 
1025:bluetooth_rxtx.c **** 	if (modulation == MOD_BT_BASIC_RATE) {
1026:bluetooth_rxtx.c **** 		cc2400_set(MDMCTRL, 0x0029);    // 160 kHz frequency deviation
1027:bluetooth_rxtx.c **** 	} else if (modulation == MOD_BT_LOW_ENERGY) {
1028:bluetooth_rxtx.c **** 		cc2400_set(MDMCTRL, 0x0040);    // 250 kHz frequency deviation
1029:bluetooth_rxtx.c **** 	} else {
1030:bluetooth_rxtx.c **** 		/* oops */
1031:bluetooth_rxtx.c **** 		return;
1032:bluetooth_rxtx.c **** 	}
1033:bluetooth_rxtx.c **** 
1034:bluetooth_rxtx.c **** 	clkn_start();
1035:bluetooth_rxtx.c **** 
1036:bluetooth_rxtx.c **** 	while (!(cc2400_status() & XOSC16M_STABLE));
1037:bluetooth_rxtx.c **** 	cc2400_strobe(SFSON);
1038:bluetooth_rxtx.c **** 	while (!(cc2400_status() & FS_LOCK));
1039:bluetooth_rxtx.c **** 
1040:bluetooth_rxtx.c **** #ifdef UBERTOOTH_ONE
1041:bluetooth_rxtx.c **** 	PAEN_SET;
1042:bluetooth_rxtx.c **** #endif
1043:bluetooth_rxtx.c **** 
1044:bluetooth_rxtx.c **** 	while ((cc2400_get(FSMSTATE) & 0x1f) != STATE_STROBE_FS_ON);
1045:bluetooth_rxtx.c **** 	cc2400_strobe(STX);
1046:bluetooth_rxtx.c **** 
1047:bluetooth_rxtx.c **** #endif
1048:bluetooth_rxtx.c **** }
1049:bluetooth_rxtx.c **** 
1050:bluetooth_rxtx.c **** /*
1051:bluetooth_rxtx.c ****  * Transmit a BTLE packet with the specified access address.
1052:bluetooth_rxtx.c ****  *
1053:bluetooth_rxtx.c ****  * All modulation parameters are set within this function. The data
1054:bluetooth_rxtx.c ****  * should not be pre-whitened, but the CRC should be calculated and
1055:bluetooth_rxtx.c ****  * included in the data length.
1056:bluetooth_rxtx.c ****  */
1057:bluetooth_rxtx.c **** void le_transmit(u32 aa, u8 len, u8 *data)
1058:bluetooth_rxtx.c **** {
1059:bluetooth_rxtx.c **** 	unsigned i, j;
ARM GAS  /var/folders/s6/4bph2j8d1nvcsgz5bgm0yhx00000gn/T//ccF5ee78.s 			page 20


1060:bluetooth_rxtx.c **** 	int bit;
1061:bluetooth_rxtx.c **** 	u8 txbuf[64];
1062:bluetooth_rxtx.c **** 	u8 tx_len;
1063:bluetooth_rxtx.c **** 	u8 byte;
1064:bluetooth_rxtx.c **** 	u16 gio_save;
1065:bluetooth_rxtx.c **** 
1066:bluetooth_rxtx.c **** 	// first four bytes: AA
1067:bluetooth_rxtx.c **** 	for (i = 0; i < 4; ++i) {
1068:bluetooth_rxtx.c **** 		byte = aa & 0xff;
1069:bluetooth_rxtx.c **** 		aa >>= 8;
1070:bluetooth_rxtx.c **** 		txbuf[i] = 0;
1071:bluetooth_rxtx.c **** 		for (j = 0; j < 8; ++j) {
1072:bluetooth_rxtx.c **** 			txbuf[i] |= (byte & 1) << (7 - j);
1073:bluetooth_rxtx.c **** 			byte >>= 1;
1074:bluetooth_rxtx.c **** 		}
1075:bluetooth_rxtx.c **** 	}
1076:bluetooth_rxtx.c **** 
1077:bluetooth_rxtx.c **** 	// whiten the data and copy it into the txbuf
1078:bluetooth_rxtx.c **** 	int idx = whitening_index[btle_channel_index(channel-2402)];
1079:bluetooth_rxtx.c **** 	for (i = 0; i < len; ++i) {
1080:bluetooth_rxtx.c **** 		byte = data[i];
1081:bluetooth_rxtx.c **** 		txbuf[i+4] = 0;
1082:bluetooth_rxtx.c **** 		for (j = 0; j < 8; ++j) {
1083:bluetooth_rxtx.c **** 			bit = (byte & 1) ^ whitening[idx];
1084:bluetooth_rxtx.c **** 			idx = (idx + 1) % sizeof(whitening);
1085:bluetooth_rxtx.c **** 			byte >>= 1;
1086:bluetooth_rxtx.c **** 			txbuf[i+4] |= bit << (7 - j);
1087:bluetooth_rxtx.c **** 		}
1088:bluetooth_rxtx.c **** 	}
1089:bluetooth_rxtx.c **** 
1090:bluetooth_rxtx.c **** 	len += 4; // include the AA in len
1091:bluetooth_rxtx.c **** 
1092:bluetooth_rxtx.c **** 	// Bluetooth-like modulation
1093:bluetooth_rxtx.c **** 	cc2400_set(MANAND,  0x7fff);
1094:bluetooth_rxtx.c **** 	cc2400_set(LMTST,   0x2b22);    // LNA and receive mixers test register
1095:bluetooth_rxtx.c **** 	cc2400_set(MDMTST0, 0x134b);    // no PRNG
1096:bluetooth_rxtx.c **** 
1097:bluetooth_rxtx.c **** 	cc2400_set(GRMDM,   0x0c01);
1098:bluetooth_rxtx.c **** 	// 0 00 01 1 000 00 0 00 0 1
1099:bluetooth_rxtx.c **** 	//      |  | |   |  +--------> CRC off
1100:bluetooth_rxtx.c **** 	//      |  | |   +-----------> sync word: 8 MSB bits of SYNC_WORD
1101:bluetooth_rxtx.c **** 	//      |  | +---------------> 0 preamble bytes of 01010101
1102:bluetooth_rxtx.c **** 	//      |  +-----------------> packet mode
1103:bluetooth_rxtx.c **** 	//      +--------------------> buffered mode
1104:bluetooth_rxtx.c **** 
1105:bluetooth_rxtx.c **** 	cc2400_set(FSDIV,   channel);
1106:bluetooth_rxtx.c **** 	cc2400_set(FREND,   0b1011);    // amplifier level (-7 dBm, picked from hat)
1107:bluetooth_rxtx.c **** 	cc2400_set(MDMCTRL, 0x0040);    // 250 kHz frequency deviation
1108:bluetooth_rxtx.c **** 	cc2400_set(INT,     0x0014);    // FIFO_THRESHOLD: 20 bytes
1109:bluetooth_rxtx.c **** 
1110:bluetooth_rxtx.c **** 	// sync byte depends on the first transmitted bit of the AA
1111:bluetooth_rxtx.c **** 	if (aa & 1)
1112:bluetooth_rxtx.c **** 		cc2400_set(SYNCH,   0xaaaa);
1113:bluetooth_rxtx.c **** 	else
1114:bluetooth_rxtx.c **** 		cc2400_set(SYNCH,   0x5555);
1115:bluetooth_rxtx.c **** 
1116:bluetooth_rxtx.c **** 	// set GIO to FIFO_FULL
ARM GAS  /var/folders/s6/4bph2j8d1nvcsgz5bgm0yhx00000gn/T//ccF5ee78.s 			page 21


1117:bluetooth_rxtx.c **** 	gio_save = cc2400_get(IOCFG);
1118:bluetooth_rxtx.c **** 	cc2400_set(IOCFG, (GIO_FIFO_FULL << 9) | (gio_save & 0x1ff));
1119:bluetooth_rxtx.c **** 
1120:bluetooth_rxtx.c **** 	while (!(cc2400_status() & XOSC16M_STABLE));
1121:bluetooth_rxtx.c **** 	cc2400_strobe(SFSON);
1122:bluetooth_rxtx.c **** 	while (!(cc2400_status() & FS_LOCK));
1123:bluetooth_rxtx.c **** 	TXLED_SET;
1124:bluetooth_rxtx.c **** #ifdef UBERTOOTH_ONE
1125:bluetooth_rxtx.c **** 	PAEN_SET;
1126:bluetooth_rxtx.c **** #endif
1127:bluetooth_rxtx.c **** 	while ((cc2400_get(FSMSTATE) & 0x1f) != STATE_STROBE_FS_ON);
1128:bluetooth_rxtx.c **** 	cc2400_strobe(STX);
1129:bluetooth_rxtx.c **** 
1130:bluetooth_rxtx.c **** 	// put the packet into the FIFO
1131:bluetooth_rxtx.c **** 	for (i = 0; i < len; i += 16) {
1132:bluetooth_rxtx.c **** 		while (GIO6) ; // wait for the FIFO to drain (FIFO_FULL false)
1133:bluetooth_rxtx.c **** 		tx_len = len - i;
1134:bluetooth_rxtx.c **** 		if (tx_len > 16)
1135:bluetooth_rxtx.c **** 			tx_len = 16;
1136:bluetooth_rxtx.c **** 		cc2400_fifo_write(tx_len, txbuf + i);
1137:bluetooth_rxtx.c **** 	}
1138:bluetooth_rxtx.c **** 
1139:bluetooth_rxtx.c **** 	while ((cc2400_get(FSMSTATE) & 0x1f) != STATE_STROBE_FS_ON);
1140:bluetooth_rxtx.c **** 	TXLED_CLR;
1141:bluetooth_rxtx.c **** 
1142:bluetooth_rxtx.c **** 	cc2400_strobe(SRFOFF);
1143:bluetooth_rxtx.c **** 	while ((cc2400_status() & FS_LOCK));
1144:bluetooth_rxtx.c **** 
1145:bluetooth_rxtx.c **** #ifdef UBERTOOTH_ONE
1146:bluetooth_rxtx.c **** 	PAEN_CLR;
1147:bluetooth_rxtx.c **** #endif
1148:bluetooth_rxtx.c **** 
1149:bluetooth_rxtx.c **** 	// reset GIO
1150:bluetooth_rxtx.c **** 	cc2400_set(IOCFG, gio_save);
1151:bluetooth_rxtx.c **** }
1152:bluetooth_rxtx.c **** 
1153:bluetooth_rxtx.c **** void le_jam(void) {
1154:bluetooth_rxtx.c **** #ifdef TX_ENABLE
1155:bluetooth_rxtx.c **** 	cc2400_set(MANAND,  0x7fff);
1156:bluetooth_rxtx.c **** 	cc2400_set(LMTST,   0x2b22);    // LNA and receive mixers test register
1157:bluetooth_rxtx.c **** 	cc2400_set(MDMTST0, 0x234b);    // PRNG, 1 MHz offset
1158:bluetooth_rxtx.c **** 
1159:bluetooth_rxtx.c **** 	cc2400_set(GRMDM,   0x0c01);
1160:bluetooth_rxtx.c **** 	// 0 00 01 1 000 00 0 00 0 1
1161:bluetooth_rxtx.c **** 	//      |  | |   |  +--------> CRC off
1162:bluetooth_rxtx.c **** 	//      |  | |   +-----------> sync word: 8 MSB bits of SYNC_WORD
1163:bluetooth_rxtx.c **** 	//      |  | +---------------> 0 preamble bytes of 01010101
1164:bluetooth_rxtx.c **** 	//      |  +-----------------> packet mode
1165:bluetooth_rxtx.c **** 	//      +--------------------> buffered mode
1166:bluetooth_rxtx.c **** 
1167:bluetooth_rxtx.c **** 	// cc2400_set(FSDIV,   channel);
1168:bluetooth_rxtx.c **** 	cc2400_set(FREND,   0b1011);    // amplifier level (-7 dBm, picked from hat)
1169:bluetooth_rxtx.c **** 	cc2400_set(MDMCTRL, 0x0040);    // 250 kHz frequency deviation
1170:bluetooth_rxtx.c **** 
1171:bluetooth_rxtx.c **** 	while (!(cc2400_status() & XOSC16M_STABLE));
1172:bluetooth_rxtx.c **** 	cc2400_strobe(SFSON);
1173:bluetooth_rxtx.c **** 	while (!(cc2400_status() & FS_LOCK));
ARM GAS  /var/folders/s6/4bph2j8d1nvcsgz5bgm0yhx00000gn/T//ccF5ee78.s 			page 22


1174:bluetooth_rxtx.c **** 	TXLED_SET;
1175:bluetooth_rxtx.c **** #ifdef UBERTOOTH_ONE
1176:bluetooth_rxtx.c **** 	PAEN_SET;
1177:bluetooth_rxtx.c **** #endif
1178:bluetooth_rxtx.c **** 	while ((cc2400_get(FSMSTATE) & 0x1f) != STATE_STROBE_FS_ON);
1179:bluetooth_rxtx.c **** 	cc2400_strobe(STX);
1180:bluetooth_rxtx.c **** #endif
1181:bluetooth_rxtx.c **** }
1182:bluetooth_rxtx.c **** 
1183:bluetooth_rxtx.c **** /* TODO - return whether hop happened, or should caller have to keep
1184:bluetooth_rxtx.c ****  * track of this? */
1185:bluetooth_rxtx.c **** void hop(void)
1186:bluetooth_rxtx.c **** {
1187:bluetooth_rxtx.c **** 	do_hop = 0;
1188:bluetooth_rxtx.c **** 	last_hop = clkn;
1189:bluetooth_rxtx.c **** 
1190:bluetooth_rxtx.c **** 	// No hopping, if channel is set correctly, do nothing
1191:bluetooth_rxtx.c **** 	if (hop_mode == HOP_NONE) {
1192:bluetooth_rxtx.c **** 		if (cc2400_get(FSDIV) == (channel - 1))
1193:bluetooth_rxtx.c **** 			return;
1194:bluetooth_rxtx.c **** 	}
1195:bluetooth_rxtx.c **** 	/* Slow sweep (100 hops/sec)
1196:bluetooth_rxtx.c **** 	 * only hop to currently used channels if AFH is enabled
1197:bluetooth_rxtx.c **** 	 */
1198:bluetooth_rxtx.c **** 	else if (hop_mode == HOP_SWEEP) {
1199:bluetooth_rxtx.c **** 		do {
1200:bluetooth_rxtx.c **** 			channel += 32;
1201:bluetooth_rxtx.c **** 			if (channel > 2480)
1202:bluetooth_rxtx.c **** 				channel -= 79;
1203:bluetooth_rxtx.c **** 		} while ( used_channels != 0 && afh_enabled && !( afh_map[(channel-2402)/8] & 0x1<<((channel-2402
1204:bluetooth_rxtx.c **** 	}
1205:bluetooth_rxtx.c **** 
1206:bluetooth_rxtx.c **** 	/* AFH detection
1207:bluetooth_rxtx.c **** 	 * only hop to currently unused channesl
1208:bluetooth_rxtx.c **** 	 */
1209:bluetooth_rxtx.c **** 	else if (hop_mode == HOP_AFH) {
1210:bluetooth_rxtx.c **** 		do {
1211:bluetooth_rxtx.c **** 			channel += 32;
1212:bluetooth_rxtx.c **** 			if (channel > 2480)
1213:bluetooth_rxtx.c **** 				channel -= 79;
1214:bluetooth_rxtx.c **** 		} while( used_channels != 79 && (afh_map[(channel-2402)/8] & 0x1<<((channel-2402)%8)) );
1215:bluetooth_rxtx.c **** 	}
1216:bluetooth_rxtx.c **** 
1217:bluetooth_rxtx.c **** 	else if (hop_mode == HOP_BLUETOOTH) {
1218:bluetooth_rxtx.c **** 		channel = next_hop(clkn);
1219:bluetooth_rxtx.c **** 	}
1220:bluetooth_rxtx.c **** 
1221:bluetooth_rxtx.c **** 	else if (hop_mode == HOP_BTLE) {
1222:bluetooth_rxtx.c **** 		channel = btle_next_hop(&le);
1223:bluetooth_rxtx.c **** 	}
1224:bluetooth_rxtx.c **** 
1225:bluetooth_rxtx.c **** 	else if (hop_mode == HOP_DIRECT) {
1226:bluetooth_rxtx.c **** 		channel = hop_direct_channel;
1227:bluetooth_rxtx.c **** 	}
1228:bluetooth_rxtx.c **** 	/* IDLE mode, but leave amp on, so don't call cc2400_idle(). */
1229:bluetooth_rxtx.c **** 	cc2400_strobe(SRFOFF);
1230:bluetooth_rxtx.c **** 	while ((cc2400_status() & FS_LOCK)); // need to wait for unlock?
ARM GAS  /var/folders/s6/4bph2j8d1nvcsgz5bgm0yhx00000gn/T//ccF5ee78.s 			page 23


1231:bluetooth_rxtx.c **** 
1232:bluetooth_rxtx.c **** 	/* Retune */
1233:bluetooth_rxtx.c **** 	if(mode == MODE_TX_SYMBOLS)
1234:bluetooth_rxtx.c **** 		cc2400_set(FSDIV, channel);
1235:bluetooth_rxtx.c **** 	else
1236:bluetooth_rxtx.c **** 		cc2400_set(FSDIV, channel - 1);
1237:bluetooth_rxtx.c **** 
1238:bluetooth_rxtx.c **** 	/* Update CS register if hopping.  */
1239:bluetooth_rxtx.c **** 	if (hop_mode > 0) {
1240:bluetooth_rxtx.c **** 		cs_threshold_calc_and_set(channel);
1241:bluetooth_rxtx.c **** 	}
1242:bluetooth_rxtx.c **** 
1243:bluetooth_rxtx.c **** 	/* Wait for lock */
1244:bluetooth_rxtx.c **** 	cc2400_strobe(SFSON);
1245:bluetooth_rxtx.c **** 	while (!(cc2400_status() & FS_LOCK));
1246:bluetooth_rxtx.c **** 
1247:bluetooth_rxtx.c **** 	dma_discard = 1;
1248:bluetooth_rxtx.c **** 
1249:bluetooth_rxtx.c **** 	if(mode == MODE_TX_SYMBOLS)
1250:bluetooth_rxtx.c **** 		cc2400_strobe(STX);
1251:bluetooth_rxtx.c **** 	else
1252:bluetooth_rxtx.c **** 		cc2400_strobe(SRX);
1253:bluetooth_rxtx.c **** }
1254:bluetooth_rxtx.c **** 
1255:bluetooth_rxtx.c **** /* Bluetooth packet monitoring */
1256:bluetooth_rxtx.c **** void bt_stream_rx()
1257:bluetooth_rxtx.c **** {
1258:bluetooth_rxtx.c **** 	int8_t rssi;
1259:bluetooth_rxtx.c **** 	int8_t rssi_at_trigger;
1260:bluetooth_rxtx.c **** 
1261:bluetooth_rxtx.c **** 	RXLED_CLR;
1262:bluetooth_rxtx.c **** 
1263:bluetooth_rxtx.c **** 	queue_init();
1264:bluetooth_rxtx.c **** 	dio_ssp_init();
1265:bluetooth_rxtx.c **** 	dma_init();
1266:bluetooth_rxtx.c **** 	dio_ssp_start();
1267:bluetooth_rxtx.c **** 
1268:bluetooth_rxtx.c **** 	cc2400_rx();
1269:bluetooth_rxtx.c **** 
1270:bluetooth_rxtx.c **** 	cs_trigger_enable();
1271:bluetooth_rxtx.c **** 
1272:bluetooth_rxtx.c **** 	while ( requested_mode == MODE_RX_SYMBOLS || requested_mode == MODE_BT_FOLLOW )
1273:bluetooth_rxtx.c **** 	{
1274:bluetooth_rxtx.c **** 
1275:bluetooth_rxtx.c **** 		RXLED_CLR;
1276:bluetooth_rxtx.c **** 
1277:bluetooth_rxtx.c **** 		/* Wait for DMA transfer. TODO - need more work on
1278:bluetooth_rxtx.c **** 		 * RSSI. Should send RSSI indications to host even
1279:bluetooth_rxtx.c **** 		 * when not transferring data. That would also keep
1280:bluetooth_rxtx.c **** 		 * the USB stream going. This loop runs 50-80 times
1281:bluetooth_rxtx.c **** 		 * while waiting for DMA, but RSSI sampling does not
1282:bluetooth_rxtx.c **** 		 * cover all the symbols in a DMA transfer. Can not do
1283:bluetooth_rxtx.c **** 		 * RSSI sampling in CS interrupt, but could log time
1284:bluetooth_rxtx.c **** 		 * at multiple trigger points there. The MAX() below
1285:bluetooth_rxtx.c **** 		 * helps with statistics in the case that cs_trigger
1286:bluetooth_rxtx.c **** 		 * happened before the loop started. */
1287:bluetooth_rxtx.c **** 		rssi_reset();
ARM GAS  /var/folders/s6/4bph2j8d1nvcsgz5bgm0yhx00000gn/T//ccF5ee78.s 			page 24


1288:bluetooth_rxtx.c **** 		rssi_at_trigger = INT8_MIN;
1289:bluetooth_rxtx.c **** 		while (!rx_tc) {
1290:bluetooth_rxtx.c **** 			rssi = (int8_t)(cc2400_get(RSSI) >> 8);
1291:bluetooth_rxtx.c **** 			if (cs_trigger && (rssi_at_trigger == INT8_MIN)) {
1292:bluetooth_rxtx.c **** 				rssi = MAX(rssi,(cs_threshold_cur+54));
1293:bluetooth_rxtx.c **** 				rssi_at_trigger = rssi;
1294:bluetooth_rxtx.c **** 			}
1295:bluetooth_rxtx.c **** 			rssi_add(rssi);
1296:bluetooth_rxtx.c **** 
1297:bluetooth_rxtx.c **** 			handle_usb(clkn);
1298:bluetooth_rxtx.c **** 
1299:bluetooth_rxtx.c **** 			/* If timer says time to hop, do it. */
1300:bluetooth_rxtx.c **** 			if (do_hop) {
1301:bluetooth_rxtx.c **** 				hop();
1302:bluetooth_rxtx.c **** 			} else {
1303:bluetooth_rxtx.c **** 				TXLED_CLR;
1304:bluetooth_rxtx.c **** 			}
1305:bluetooth_rxtx.c **** 			/* TODO - set per-channel carrier sense threshold.
1306:bluetooth_rxtx.c **** 			 * Set by firmware or host. */
1307:bluetooth_rxtx.c **** 		}
1308:bluetooth_rxtx.c **** 
1309:bluetooth_rxtx.c **** 		RXLED_SET;
1310:bluetooth_rxtx.c **** 
1311:bluetooth_rxtx.c **** 		if (rx_err) {
1312:bluetooth_rxtx.c **** 			status |= DMA_ERROR;
1313:bluetooth_rxtx.c **** 		}
1314:bluetooth_rxtx.c **** 
1315:bluetooth_rxtx.c **** 		/* Missed a DMA trasfer? */
1316:bluetooth_rxtx.c **** 		if (rx_tc > 1)
1317:bluetooth_rxtx.c **** 			status |= DMA_OVERFLOW;
1318:bluetooth_rxtx.c **** 
1319:bluetooth_rxtx.c **** 		if (dma_discard) {
1320:bluetooth_rxtx.c **** 			status |= DISCARD;
1321:bluetooth_rxtx.c **** 			dma_discard = 0;
1322:bluetooth_rxtx.c **** 		}
1323:bluetooth_rxtx.c **** 
1324:bluetooth_rxtx.c **** 		rssi_iir_update(channel);
1325:bluetooth_rxtx.c **** 
1326:bluetooth_rxtx.c **** 		/* Set squelch hold if there was either a CS trigger, squelch
1327:bluetooth_rxtx.c **** 		 * is disabled, or if the current rssi_max is above the same
1328:bluetooth_rxtx.c **** 		 * threshold. Currently, this is redundant, but allows for
1329:bluetooth_rxtx.c **** 		 * per-channel or other rssi triggers in the future. */
1330:bluetooth_rxtx.c **** 		if (cs_trigger || cs_no_squelch) {
1331:bluetooth_rxtx.c **** 			status |= CS_TRIGGER;
1332:bluetooth_rxtx.c **** 			cs_trigger = 0;
1333:bluetooth_rxtx.c **** 		}
1334:bluetooth_rxtx.c **** 
1335:bluetooth_rxtx.c **** 		if (rssi_max >= (cs_threshold_cur + 54)) {
1336:bluetooth_rxtx.c **** 			status |= RSSI_TRIGGER;
1337:bluetooth_rxtx.c **** 		}
1338:bluetooth_rxtx.c **** 
1339:bluetooth_rxtx.c **** 		enqueue(BR_PACKET, (uint8_t*)idle_rxbuf);
1340:bluetooth_rxtx.c **** 
1341:bluetooth_rxtx.c **** 		handle_usb(clkn);
1342:bluetooth_rxtx.c **** 		rx_tc = 0;
1343:bluetooth_rxtx.c **** 		rx_err = 0;
1344:bluetooth_rxtx.c **** 	}
ARM GAS  /var/folders/s6/4bph2j8d1nvcsgz5bgm0yhx00000gn/T//ccF5ee78.s 			page 25


1345:bluetooth_rxtx.c **** 
1346:bluetooth_rxtx.c **** 	/* This call is a nop so far. Since bt_rx_stream() starts the
1347:bluetooth_rxtx.c **** 	 * stream, it makes sense that it would stop it. TODO - how
1348:bluetooth_rxtx.c **** 	 * should setup/teardown be handled? Should every new mode be
1349:bluetooth_rxtx.c **** 	 * starting from scratch? */
1350:bluetooth_rxtx.c **** 	dio_ssp_stop();
1351:bluetooth_rxtx.c **** 	cs_trigger_disable();
1352:bluetooth_rxtx.c **** }
1353:bluetooth_rxtx.c **** 
1354:bluetooth_rxtx.c **** static uint8_t reverse8(uint8_t data)
1355:bluetooth_rxtx.c **** {
  26              		.loc 1 1355 0
  27              		.cfi_startproc
  28              		@ args = 0, pretend = 0, frame = 0
  29              		@ frame_needed = 0, uses_anonymous_args = 0
  30              	.LVL0:
  31 0000 10B5     		push	{r4, lr}
  32              		.cfi_def_cfa_offset 8
  33              		.cfi_offset 4, -8
  34              		.cfi_offset 14, -4
  35              	.LVL1:
  36              	.LBB4:
1356:bluetooth_rxtx.c **** 	uint8_t reversed = 0;
1357:bluetooth_rxtx.c **** 
1358:bluetooth_rxtx.c **** 	for(size_t i=0; i<8; i++)
  37              		.loc 1 1358 0
  38 0002 0023     		movs	r3, #0
  39              	.LBE4:
1356:bluetooth_rxtx.c **** 	uint8_t reversed = 0;
  40              		.loc 1 1356 0
  41 0004 1A46     		mov	r2, r3
  42              	.LVL2:
  43              	.L2:
  44              	.LBB5:
1359:bluetooth_rxtx.c **** 	{
1360:bluetooth_rxtx.c **** 		reversed |= ((data >> i) & 0x01) << (7-i);
  45              		.loc 1 1360 0 discriminator 3
  46 0006 40FA03F1 		asr	r1, r0, r3
  47 000a C3F10704 		rsb	r4, r3, #7
  48 000e 01F00101 		and	r1, r1, #1
  49 0012 A140     		lsls	r1, r1, r4
1358:bluetooth_rxtx.c **** 	{
  50              		.loc 1 1358 0 discriminator 3
  51 0014 0133     		adds	r3, r3, #1
  52              	.LVL3:
  53              		.loc 1 1360 0 discriminator 3
  54 0016 0A43     		orrs	r2, r2, r1
  55              	.LVL4:
1358:bluetooth_rxtx.c **** 	{
  56              		.loc 1 1358 0 discriminator 3
  57 0018 082B     		cmp	r3, #8
  58              		.loc 1 1360 0 discriminator 3
  59 001a D2B2     		uxtb	r2, r2
  60              	.LVL5:
1358:bluetooth_rxtx.c **** 	{
  61              		.loc 1 1358 0 discriminator 3
  62 001c F3D1     		bne	.L2
ARM GAS  /var/folders/s6/4bph2j8d1nvcsgz5bgm0yhx00000gn/T//ccF5ee78.s 			page 26


  63              	.LBE5:
1361:bluetooth_rxtx.c **** 	}
1362:bluetooth_rxtx.c **** 
1363:bluetooth_rxtx.c **** 	return reversed;
1364:bluetooth_rxtx.c **** }
  64              		.loc 1 1364 0
  65 001e 1046     		mov	r0, r2
  66              	.LVL6:
  67 0020 10BD     		pop	{r4, pc}
  68              		.cfi_endproc
  69              	.LFE15:
  71              		.section	.text.cc2400_rx,"ax",%progbits
  72              		.align	1
  73              		.thumb
  74              		.thumb_func
  76              	cc2400_rx:
  77              	.LFB8:
 893:bluetooth_rxtx.c **** 	u16 mdmctrl = 0;
  78              		.loc 1 893 0
  79              		.cfi_startproc
  80              		@ args = 0, pretend = 0, frame = 0
  81              		@ frame_needed = 0, uses_anonymous_args = 0
  82 0000 38B5     		push	{r3, r4, r5, lr}
  83              		.cfi_def_cfa_offset 16
  84              		.cfi_offset 3, -16
  85              		.cfi_offset 4, -12
  86              		.cfi_offset 5, -8
  87              		.cfi_offset 14, -4
  88              	.LVL7:
 896:bluetooth_rxtx.c **** 		if (modulation == MOD_BT_BASIC_RATE) {
  89              		.loc 1 896 0
  90 0002 254B     		ldr	r3, .L20
  91 0004 254C     		ldr	r4, .L20+4
  92 0006 1A78     		ldrb	r2, [r3]	@ zero_extendqisi2
  93 0008 12B1     		cbz	r2, .L6
 896:bluetooth_rxtx.c **** 		if (modulation == MOD_BT_BASIC_RATE) {
  94              		.loc 1 896 0 is_stmt 0 discriminator 1
  95 000a 1A78     		ldrb	r2, [r3]	@ zero_extendqisi2
  96 000c 012A     		cmp	r2, #1
  97 000e 27D1     		bne	.L7
  98              	.L6:
 897:bluetooth_rxtx.c **** 			mdmctrl = 0x0029; // 160 kHz frequency deviation
  99              		.loc 1 897 0 is_stmt 1
 100 0010 1B78     		ldrb	r3, [r3]	@ zero_extendqisi2
 101 0012 33B1     		cbz	r3, .L11
 899:bluetooth_rxtx.c **** 			mdmctrl = 0x0040; // 250 kHz frequency deviation
 102              		.loc 1 899 0
 103 0014 204B     		ldr	r3, .L20
 104 0016 1B78     		ldrb	r3, [r3]	@ zero_extendqisi2
 900:bluetooth_rxtx.c **** 		}
 105              		.loc 1 900 0
 106 0018 012B     		cmp	r3, #1
 107 001a 14BF     		ite	ne
 108 001c 0025     		movne	r5, #0
 109 001e 4025     		moveq	r5, #64
 110 0020 00E0     		b	.L8
 111              	.L11:
ARM GAS  /var/folders/s6/4bph2j8d1nvcsgz5bgm0yhx00000gn/T//ccF5ee78.s 			page 27


 898:bluetooth_rxtx.c **** 		} else if (modulation == MOD_BT_LOW_ENERGY) {
 112              		.loc 1 898 0
 113 0022 2925     		movs	r5, #41
 114              	.L8:
 115              	.LVL8:
 902:bluetooth_rxtx.c **** 		cc2400_set(LMTST,   0x2b22);
 116              		.loc 1 902 0
 117 0024 0D20     		movs	r0, #13
 118 0026 47F6FF71 		movw	r1, #32767
 119 002a FFF7FEFF 		bl	cc2400_set
 120              	.LVL9:
 903:bluetooth_rxtx.c **** 		cc2400_set(MDMTST0, 0x134b); // without PRNG
 121              		.loc 1 903 0
 122 002e 1220     		movs	r0, #18
 123 0030 42F62231 		movw	r1, #11042
 124 0034 FFF7FEFF 		bl	cc2400_set
 125              	.LVL10:
 904:bluetooth_rxtx.c **** 		cc2400_set(GRMDM,   0x0101); // un-buffered mode, GFSK
 126              		.loc 1 904 0
 127 0038 1420     		movs	r0, #20
 128 003a 41F24B31 		movw	r1, #4939
 129 003e FFF7FEFF 		bl	cc2400_set
 130              	.LVL11:
 905:bluetooth_rxtx.c **** 		// 0 00 00 0 010 00 0 00 0 1
 131              		.loc 1 905 0
 132 0042 2020     		movs	r0, #32
 133 0044 40F20111 		movw	r1, #257
 134 0048 FFF7FEFF 		bl	cc2400_set
 135              	.LVL12:
 912:bluetooth_rxtx.c **** 		cc2400_set(MDMCTRL, mdmctrl);
 136              		.loc 1 912 0
 137 004c 2188     		ldrh	r1, [r4]
 138 004e 0220     		movs	r0, #2
 139 0050 0139     		subs	r1, r1, #1
 140 0052 89B2     		uxth	r1, r1
 141 0054 FFF7FEFF 		bl	cc2400_set
 142              	.LVL13:
 913:bluetooth_rxtx.c **** 	}
 143              		.loc 1 913 0
 144 0058 0320     		movs	r0, #3
 145 005a 2946     		mov	r1, r5
 146 005c FFF7FEFF 		bl	cc2400_set
 147              	.LVL14:
 148              	.L7:
 917:bluetooth_rxtx.c **** 
 149              		.loc 1 917 0
 150 0060 2088     		ldrh	r0, [r4]
 151 0062 80B2     		uxth	r0, r0
 152 0064 FFF7FEFF 		bl	cs_threshold_calc_and_set
 153              	.LVL15:
 919:bluetooth_rxtx.c **** 
 154              		.loc 1 919 0
 155 0068 FFF7FEFF 		bl	clkn_start
 156              	.LVL16:
 157              	.L9:
 921:bluetooth_rxtx.c **** 	cc2400_strobe(SFSON);
 158              		.loc 1 921 0 discriminator 1
ARM GAS  /var/folders/s6/4bph2j8d1nvcsgz5bgm0yhx00000gn/T//ccF5ee78.s 			page 28


 159 006c FFF7FEFF 		bl	cc2400_status
 160              	.LVL17:
 161 0070 4206     		lsls	r2, r0, #25
 162 0072 FBD5     		bpl	.L9
 922:bluetooth_rxtx.c **** 	while (!(cc2400_status() & FS_LOCK));
 163              		.loc 1 922 0
 164 0074 6120     		movs	r0, #97
 165 0076 FFF7FEFF 		bl	cc2400_strobe
 166              	.LVL18:
 167              	.L10:
 923:bluetooth_rxtx.c **** 	cc2400_strobe(SRX);
 168              		.loc 1 923 0 discriminator 1
 169 007a FFF7FEFF 		bl	cc2400_status
 170              	.LVL19:
 171 007e 4307     		lsls	r3, r0, #29
 172 0080 FBD5     		bpl	.L10
 924:bluetooth_rxtx.c **** #ifdef UBERTOOTH_ONE
 173              		.loc 1 924 0
 174 0082 6220     		movs	r0, #98
 175 0084 FFF7FEFF 		bl	cc2400_strobe
 176              	.LVL20:
 926:bluetooth_rxtx.c **** 	HGM_SET;
 177              		.loc 1 926 0
 178 0088 054B     		ldr	r3, .L20+8
 179 008a 8022     		movs	r2, #128
 180 008c 1A60     		str	r2, [r3]
 927:bluetooth_rxtx.c **** #endif
 181              		.loc 1 927 0
 182 008e 4FF48072 		mov	r2, #256
 183 0092 1A60     		str	r2, [r3]
 184 0094 38BD     		pop	{r3, r4, r5, pc}
 185              	.L21:
 186 0096 00BF     		.align	2
 187              	.L20:
 188 0098 00000000 		.word	.LANCHOR0
 189 009c 00000000 		.word	.LANCHOR1
 190 00a0 58C00920 		.word	537509976
 191              		.cfi_endproc
 192              	.LFE8:
 194              		.section	.text.cc2400_rx_sync,"ax",%progbits
 195              		.align	1
 196              		.thumb
 197              		.thumb_func
 199              	cc2400_rx_sync:
 200              	.LFB9:
 933:bluetooth_rxtx.c **** 	u16 grmdm, mdmctrl;
 201              		.loc 1 933 0
 202              		.cfi_startproc
 203              		@ args = 0, pretend = 0, frame = 0
 204              		@ frame_needed = 0, uses_anonymous_args = 0
 205              	.LVL21:
 206 0000 70B5     		push	{r4, r5, r6, lr}
 207              		.cfi_def_cfa_offset 16
 208              		.cfi_offset 4, -16
 209              		.cfi_offset 5, -12
 210              		.cfi_offset 6, -8
 211              		.cfi_offset 14, -4
ARM GAS  /var/folders/s6/4bph2j8d1nvcsgz5bgm0yhx00000gn/T//ccF5ee78.s 			page 29


 936:bluetooth_rxtx.c **** 		mdmctrl = 0x0029; // 160 kHz frequency deviation
 212              		.loc 1 936 0
 213 0002 274B     		ldr	r3, .L32
 933:bluetooth_rxtx.c **** 	u16 grmdm, mdmctrl;
 214              		.loc 1 933 0
 215 0004 0446     		mov	r4, r0
 936:bluetooth_rxtx.c **** 		mdmctrl = 0x0029; // 160 kHz frequency deviation
 216              		.loc 1 936 0
 217 0006 1A78     		ldrb	r2, [r3]	@ zero_extendqisi2
 218 0008 32B1     		cbz	r2, .L27
 947:bluetooth_rxtx.c **** 		mdmctrl = 0x0040; // 250 kHz frequency deviation
 219              		.loc 1 947 0
 220 000a 1B78     		ldrb	r3, [r3]	@ zero_extendqisi2
 221 000c 012B     		cmp	r3, #1
 222 000e 46D1     		bne	.L22
 948:bluetooth_rxtx.c **** 		grmdm = 0x0561; // un-buffered mode, packet w/ sync word detection
 223              		.loc 1 948 0
 224 0010 4025     		movs	r5, #64
 949:bluetooth_rxtx.c **** 		// 0 00 00 1 010 11 0 00 0 1
 225              		.loc 1 949 0
 226 0012 40F26156 		movw	r6, #1377
 227 0016 02E0     		b	.L23
 228              	.L27:
 938:bluetooth_rxtx.c **** 		// 0 00 00 1 000 11 0 00 0 1
 229              		.loc 1 938 0
 230 0018 40F26146 		movw	r6, #1121
 937:bluetooth_rxtx.c **** 		grmdm = 0x0461; // un-buffered mode, packet w/ sync word detection
 231              		.loc 1 937 0
 232 001c 2925     		movs	r5, #41
 233              	.L23:
 234              	.LVL22:
 963:bluetooth_rxtx.c **** 	cc2400_set(LMTST,   0x2b22);
 235              		.loc 1 963 0
 236 001e 0D20     		movs	r0, #13
 237              	.LVL23:
 238 0020 47F6FF71 		movw	r1, #32767
 239 0024 FFF7FEFF 		bl	cc2400_set
 240              	.LVL24:
 964:bluetooth_rxtx.c **** 
 241              		.loc 1 964 0
 242 0028 1220     		movs	r0, #18
 243 002a 42F62231 		movw	r1, #11042
 244 002e FFF7FEFF 		bl	cc2400_set
 245              	.LVL25:
 966:bluetooth_rxtx.c **** 	// 1      2      4b
 246              		.loc 1 966 0
 247 0032 1420     		movs	r0, #20
 248 0034 41F24B21 		movw	r1, #4683
 249 0038 FFF7FEFF 		bl	cc2400_set
 250              	.LVL26:
 979:bluetooth_rxtx.c **** 
 251              		.loc 1 979 0
 252 003c 2020     		movs	r0, #32
 253 003e 3146     		mov	r1, r6
 254 0040 FFF7FEFF 		bl	cc2400_set
 255              	.LVL27:
 981:bluetooth_rxtx.c **** 	cc2400_set(SYNCH,   (sync >> 16) & 0xffff);
ARM GAS  /var/folders/s6/4bph2j8d1nvcsgz5bgm0yhx00000gn/T//ccF5ee78.s 			page 30


 256              		.loc 1 981 0
 257 0044 A1B2     		uxth	r1, r4
 258 0046 2C20     		movs	r0, #44
 259 0048 FFF7FEFF 		bl	cc2400_set
 260              	.LVL28:
 982:bluetooth_rxtx.c **** 
 261              		.loc 1 982 0
 262 004c 210C     		lsrs	r1, r4, #16
 984:bluetooth_rxtx.c **** 	cc2400_set(MDMCTRL, mdmctrl);
 263              		.loc 1 984 0
 264 004e 154C     		ldr	r4, .L32+4
 265              	.LVL29:
 982:bluetooth_rxtx.c **** 
 266              		.loc 1 982 0
 267 0050 2D20     		movs	r0, #45
 268 0052 FFF7FEFF 		bl	cc2400_set
 269              	.LVL30:
 984:bluetooth_rxtx.c **** 	cc2400_set(MDMCTRL, mdmctrl);
 270              		.loc 1 984 0
 271 0056 2188     		ldrh	r1, [r4]
 272 0058 0220     		movs	r0, #2
 273 005a 0139     		subs	r1, r1, #1
 274 005c 89B2     		uxth	r1, r1
 275 005e FFF7FEFF 		bl	cc2400_set
 276              	.LVL31:
 985:bluetooth_rxtx.c **** 
 277              		.loc 1 985 0
 278 0062 0320     		movs	r0, #3
 279 0064 2946     		mov	r1, r5
 280 0066 FFF7FEFF 		bl	cc2400_set
 281              	.LVL32:
 988:bluetooth_rxtx.c **** 
 282              		.loc 1 988 0
 283 006a 2088     		ldrh	r0, [r4]
 284 006c 80B2     		uxth	r0, r0
 285 006e FFF7FEFF 		bl	cs_threshold_calc_and_set
 286              	.LVL33:
 990:bluetooth_rxtx.c **** 
 287              		.loc 1 990 0
 288 0072 FFF7FEFF 		bl	clkn_start
 289              	.LVL34:
 290              	.L25:
 992:bluetooth_rxtx.c **** 	cc2400_strobe(SFSON);
 291              		.loc 1 992 0 discriminator 1
 292 0076 FFF7FEFF 		bl	cc2400_status
 293              	.LVL35:
 294 007a 4206     		lsls	r2, r0, #25
 295 007c FBD5     		bpl	.L25
 993:bluetooth_rxtx.c **** 	while (!(cc2400_status() & FS_LOCK));
 296              		.loc 1 993 0
 297 007e 6120     		movs	r0, #97
 298 0080 FFF7FEFF 		bl	cc2400_strobe
 299              	.LVL36:
 300              	.L26:
 994:bluetooth_rxtx.c **** 	cc2400_strobe(SRX);
 301              		.loc 1 994 0 discriminator 1
 302 0084 FFF7FEFF 		bl	cc2400_status
ARM GAS  /var/folders/s6/4bph2j8d1nvcsgz5bgm0yhx00000gn/T//ccF5ee78.s 			page 31


 303              	.LVL37:
 304 0088 4307     		lsls	r3, r0, #29
 305 008a FBD5     		bpl	.L26
 995:bluetooth_rxtx.c **** #ifdef UBERTOOTH_ONE
 306              		.loc 1 995 0
 307 008c 6220     		movs	r0, #98
 308 008e FFF7FEFF 		bl	cc2400_strobe
 309              	.LVL38:
 997:bluetooth_rxtx.c **** 	HGM_SET;
 310              		.loc 1 997 0
 311 0092 054B     		ldr	r3, .L32+8
 312 0094 8022     		movs	r2, #128
 313 0096 1A60     		str	r2, [r3]
 998:bluetooth_rxtx.c **** #endif
 314              		.loc 1 998 0
 315 0098 4FF48072 		mov	r2, #256
 316 009c 1A60     		str	r2, [r3]
 317              	.LVL39:
 318              	.L22:
 319 009e 70BD     		pop	{r4, r5, r6, pc}
 320              	.L33:
 321              		.align	2
 322              	.L32:
 323 00a0 00000000 		.word	.LANCHOR0
 324 00a4 00000000 		.word	.LANCHOR1
 325 00a8 58C00920 		.word	537509976
 326              		.cfi_endproc
 327              	.LFE9:
 329              		.section	.text.enqueue,"ax",%progbits
 330              		.align	1
 331              		.thumb
 332              		.thumb_func
 334              	enqueue:
 335              	.LFB0:
 127:bluetooth_rxtx.c **** 	usb_pkt_rx* f = usb_enqueue();
 336              		.loc 1 127 0
 337              		.cfi_startproc
 338              		@ args = 0, pretend = 0, frame = 0
 339              		@ frame_needed = 0, uses_anonymous_args = 0
 340              	.LVL40:
 341 0000 F8B5     		push	{r3, r4, r5, r6, r7, lr}
 342              		.cfi_def_cfa_offset 24
 343              		.cfi_offset 3, -24
 344              		.cfi_offset 4, -20
 345              		.cfi_offset 5, -16
 346              		.cfi_offset 6, -12
 347              		.cfi_offset 7, -8
 348              		.cfi_offset 14, -4
 127:bluetooth_rxtx.c **** 	usb_pkt_rx* f = usb_enqueue();
 349              		.loc 1 127 0
 350 0002 0746     		mov	r7, r0
 351 0004 0E46     		mov	r6, r1
 128:bluetooth_rxtx.c **** 
 352              		.loc 1 128 0
 353 0006 FFF7FEFF 		bl	usb_enqueue
 354              	.LVL41:
 355 000a 1D4D     		ldr	r5, .L39
ARM GAS  /var/folders/s6/4bph2j8d1nvcsgz5bgm0yhx00000gn/T//ccF5ee78.s 			page 32


 131:bluetooth_rxtx.c **** 		status |= FIFO_OVERFLOW;
 356              		.loc 1 131 0
 357 000c 0446     		mov	r4, r0
 358 000e 20B9     		cbnz	r0, .L35
 132:bluetooth_rxtx.c **** 		return 0;
 359              		.loc 1 132 0
 360 0010 6B78     		ldrb	r3, [r5, #1]	@ zero_extendqisi2
 361 0012 43F00403 		orr	r3, r3, #4
 362 0016 6B70     		strb	r3, [r5, #1]
 133:bluetooth_rxtx.c **** 	}
 363              		.loc 1 133 0
 364 0018 F8BD     		pop	{r3, r4, r5, r6, r7, pc}
 365              	.LVL42:
 366              	.L35:
 137:bluetooth_rxtx.c **** 		f->clkn_high = (clkn >> 20) & 0xff;
 367              		.loc 1 137 0
 368 001a 042F     		cmp	r7, #4
 136:bluetooth_rxtx.c **** 	if(type == SPECAN) {
 369              		.loc 1 136 0
 370 001c 0770     		strb	r7, [r0]
 137:bluetooth_rxtx.c **** 		f->clkn_high = (clkn >> 20) & 0xff;
 371              		.loc 1 137 0
 372 001e 0ED1     		bne	.L37
 139:bluetooth_rxtx.c **** 	} else {
 373              		.loc 1 139 0
 374 0020 40F63541 		movw	r1, #3125
 138:bluetooth_rxtx.c **** 		f->clk100ns = CLK100NS;
 375              		.loc 1 138 0
 376 0024 174A     		ldr	r2, .L39+4
 377 0026 1368     		ldr	r3, [r2]
 378 0028 1B0D     		lsrs	r3, r3, #20
 379 002a C370     		strb	r3, [r0, #3]
 139:bluetooth_rxtx.c **** 	} else {
 380              		.loc 1 139 0
 381 002c 164B     		ldr	r3, .L39+8
 382 002e 1268     		ldr	r2, [r2]
 383 0030 1B68     		ldr	r3, [r3]
 384 0032 C2F31302 		ubfx	r2, r2, #0, #20
 385 0036 01FB0233 		mla	r3, r1, r2, r3
 386 003a 4360     		str	r3, [r0, #4]
 387 003c 14E0     		b	.L38
 388              	.L37:
 141:bluetooth_rxtx.c **** 		f->clk100ns = idle_buf_clk100ns;
 389              		.loc 1 141 0
 390 003e AB78     		ldrb	r3, [r5, #2]	@ zero_extendqisi2
 391 0040 C370     		strb	r3, [r0, #3]
 142:bluetooth_rxtx.c **** 		f->channel = (uint8_t)((idle_buf_channel - 2402) & 0xff);
 392              		.loc 1 142 0
 393 0042 6B68     		ldr	r3, [r5, #4]
 394 0044 4360     		str	r3, [r0, #4]
 143:bluetooth_rxtx.c **** 		f->rssi_min = rssi_min;
 395              		.loc 1 143 0
 396 0046 2B89     		ldrh	r3, [r5, #8]
 397 0048 623B     		subs	r3, r3, #98
 398 004a 8370     		strb	r3, [r0, #2]
 144:bluetooth_rxtx.c **** 		f->rssi_max = rssi_max;
 399              		.loc 1 144 0
ARM GAS  /var/folders/s6/4bph2j8d1nvcsgz5bgm0yhx00000gn/T//ccF5ee78.s 			page 33


 400 004c 0F4B     		ldr	r3, .L39+12
 401 004e 1B78     		ldrb	r3, [r3]	@ zero_extendqisi2
 402 0050 4372     		strb	r3, [r0, #9]
 145:bluetooth_rxtx.c **** 		f->rssi_avg = rssi_get_avg(idle_buf_channel);
 403              		.loc 1 145 0
 404 0052 0F4B     		ldr	r3, .L39+16
 405 0054 1B78     		ldrb	r3, [r3]	@ zero_extendqisi2
 406 0056 0372     		strb	r3, [r0, #8]
 146:bluetooth_rxtx.c **** 		f->rssi_count = rssi_count;
 407              		.loc 1 146 0
 408 0058 2889     		ldrh	r0, [r5, #8]
 409              	.LVL43:
 410 005a 80B2     		uxth	r0, r0
 411 005c FFF7FEFF 		bl	rssi_get_avg
 412              	.LVL44:
 147:bluetooth_rxtx.c **** 	}
 413              		.loc 1 147 0
 414 0060 0C4B     		ldr	r3, .L39+20
 146:bluetooth_rxtx.c **** 		f->rssi_count = rssi_count;
 415              		.loc 1 146 0
 416 0062 A072     		strb	r0, [r4, #10]
 147:bluetooth_rxtx.c **** 	}
 417              		.loc 1 147 0
 418 0064 1B78     		ldrb	r3, [r3]	@ zero_extendqisi2
 419 0066 E372     		strb	r3, [r4, #11]
 420              	.L38:
 150:bluetooth_rxtx.c **** 
 421              		.loc 1 150 0
 422 0068 04F10E00 		add	r0, r4, #14
 423 006c 3146     		mov	r1, r6
 424 006e 3222     		movs	r2, #50
 425 0070 FFF7FEFF 		bl	memcpy
 426              	.LVL45:
 152:bluetooth_rxtx.c **** 	status = 0;
 427              		.loc 1 152 0
 428 0074 6B78     		ldrb	r3, [r5, #1]	@ zero_extendqisi2
 155:bluetooth_rxtx.c **** }
 429              		.loc 1 155 0
 430 0076 0120     		movs	r0, #1
 152:bluetooth_rxtx.c **** 	status = 0;
 431              		.loc 1 152 0
 432 0078 6370     		strb	r3, [r4, #1]
 153:bluetooth_rxtx.c **** 
 433              		.loc 1 153 0
 434 007a 0023     		movs	r3, #0
 435 007c 6B70     		strb	r3, [r5, #1]
 156:bluetooth_rxtx.c **** 
 436              		.loc 1 156 0
 437 007e F8BD     		pop	{r3, r4, r5, r6, r7, pc}
 438              	.LVL46:
 439              	.L40:
 440              		.align	2
 441              	.L39:
 442 0080 00000000 		.word	.LANCHOR0
 443 0084 00000000 		.word	clkn
 444 0088 08400040 		.word	1073758216
 445 008c 00000000 		.word	rssi_min
ARM GAS  /var/folders/s6/4bph2j8d1nvcsgz5bgm0yhx00000gn/T//ccF5ee78.s 			page 34


 446 0090 00000000 		.word	rssi_max
 447 0094 00000000 		.word	rssi_count
 448              		.cfi_endproc
 449              	.LFE0:
 451              		.section	.text.le_set_access_address,"ax",%progbits
 452              		.align	1
 453              		.thumb
 454              		.thumb_func
 456              	le_set_access_address:
 457              	.LFB18:
1365:bluetooth_rxtx.c **** 
1366:bluetooth_rxtx.c **** static uint16_t reverse16(uint16_t data)
1367:bluetooth_rxtx.c **** {
1368:bluetooth_rxtx.c **** 	uint16_t reversed = 0;
1369:bluetooth_rxtx.c **** 
1370:bluetooth_rxtx.c **** 	for(size_t i=0; i<16; i++)
1371:bluetooth_rxtx.c **** 	{
1372:bluetooth_rxtx.c **** 		reversed |= ((data >> i) & 0x01) << (15-i);
1373:bluetooth_rxtx.c **** 	}
1374:bluetooth_rxtx.c **** 
1375:bluetooth_rxtx.c **** 	return reversed;
1376:bluetooth_rxtx.c **** }
1377:bluetooth_rxtx.c **** 
1378:bluetooth_rxtx.c **** /*
1379:bluetooth_rxtx.c ****  * Transmit a BTBR packet with the specified access code.
1380:bluetooth_rxtx.c ****  *
1381:bluetooth_rxtx.c ****  * All modulation parameters are set within this function.
1382:bluetooth_rxtx.c ****  */
1383:bluetooth_rxtx.c **** void br_transmit()
1384:bluetooth_rxtx.c **** {
1385:bluetooth_rxtx.c **** 	uint16_t gio_save;
1386:bluetooth_rxtx.c **** 
1387:bluetooth_rxtx.c **** 	uint32_t clkn_saved = 0;
1388:bluetooth_rxtx.c **** 
1389:bluetooth_rxtx.c **** 	uint16_t preamble = (target.syncword & 1) == 1 ? 0x5555 : 0xaaaa;
1390:bluetooth_rxtx.c **** 	uint8_t trailer = ((target.syncword >> 63) & 1) == 1 ? 0xaa : 0x55;
1391:bluetooth_rxtx.c **** 
1392:bluetooth_rxtx.c **** 	uint8_t data[16] = {
1393:bluetooth_rxtx.c **** 		reverse8((target.syncword >> 0) & 0xFF),
1394:bluetooth_rxtx.c **** 		reverse8((target.syncword >> 8) & 0xFF),
1395:bluetooth_rxtx.c **** 		reverse8((target.syncword >> 16) & 0xFF),
1396:bluetooth_rxtx.c **** 		reverse8((target.syncword >> 24) & 0xFF),
1397:bluetooth_rxtx.c **** 		reverse8((target.syncword >> 32) & 0xFF),
1398:bluetooth_rxtx.c **** 		reverse8((target.syncword >> 40) & 0xFF),
1399:bluetooth_rxtx.c **** 		reverse8((target.syncword >> 48) & 0xFF),
1400:bluetooth_rxtx.c **** 		reverse8((target.syncword >> 56) & 0xFF),
1401:bluetooth_rxtx.c **** 		reverse8(trailer),
1402:bluetooth_rxtx.c **** 		reverse8(0x77),
1403:bluetooth_rxtx.c **** 		reverse8(0x66),
1404:bluetooth_rxtx.c **** 		reverse8(0x55),
1405:bluetooth_rxtx.c **** 		reverse8(0x44),
1406:bluetooth_rxtx.c **** 		reverse8(0x33),
1407:bluetooth_rxtx.c **** 		reverse8(0x22),
1408:bluetooth_rxtx.c **** 		reverse8(0x11)
1409:bluetooth_rxtx.c **** 	};
1410:bluetooth_rxtx.c **** 
1411:bluetooth_rxtx.c **** 	cc2400_tx_sync(reverse16(preamble));
ARM GAS  /var/folders/s6/4bph2j8d1nvcsgz5bgm0yhx00000gn/T//ccF5ee78.s 			page 35


1412:bluetooth_rxtx.c **** 
1413:bluetooth_rxtx.c **** 	cc2400_set(INT,     0x0014);    // FIFO_THRESHOLD: 20 bytes
1414:bluetooth_rxtx.c **** 
1415:bluetooth_rxtx.c **** 	// set GIO to FIFO_FULL
1416:bluetooth_rxtx.c **** 	gio_save = cc2400_get(IOCFG);
1417:bluetooth_rxtx.c **** 	cc2400_set(IOCFG, (GIO_FIFO_FULL << 9) | (gio_save & 0x1ff));
1418:bluetooth_rxtx.c **** 
1419:bluetooth_rxtx.c **** 	while ( requested_mode == MODE_TX_SYMBOLS )
1420:bluetooth_rxtx.c **** 	{
1421:bluetooth_rxtx.c **** 
1422:bluetooth_rxtx.c **** 		while ((clkn >> 1) == (clkn_saved >> 1) || T0TC < 2250) {
1423:bluetooth_rxtx.c **** 
1424:bluetooth_rxtx.c **** 			// If timer says time to hop, do it.
1425:bluetooth_rxtx.c **** 			if (do_hop) {
1426:bluetooth_rxtx.c **** 				hop();
1427:bluetooth_rxtx.c **** 			}
1428:bluetooth_rxtx.c **** 		}
1429:bluetooth_rxtx.c **** 
1430:bluetooth_rxtx.c **** 		clkn_saved = clkn;
1431:bluetooth_rxtx.c **** 
1432:bluetooth_rxtx.c **** 		TXLED_SET;
1433:bluetooth_rxtx.c **** 
1434:bluetooth_rxtx.c **** 		cc2400_fifo_write(16, data);
1435:bluetooth_rxtx.c **** 
1436:bluetooth_rxtx.c **** 		while ((cc2400_get(FSMSTATE) & 0x1f) != STATE_STROBE_FS_ON);
1437:bluetooth_rxtx.c **** 		TXLED_CLR;
1438:bluetooth_rxtx.c **** 
1439:bluetooth_rxtx.c **** 		cc2400_strobe(SRFOFF);
1440:bluetooth_rxtx.c **** 		while ((cc2400_status() & FS_LOCK));
1441:bluetooth_rxtx.c **** 
1442:bluetooth_rxtx.c **** 		while (!(cc2400_status() & XOSC16M_STABLE));
1443:bluetooth_rxtx.c **** 		cc2400_strobe(SFSON);
1444:bluetooth_rxtx.c **** 		while (!(cc2400_status() & FS_LOCK));
1445:bluetooth_rxtx.c **** 
1446:bluetooth_rxtx.c **** 		while ((cc2400_get(FSMSTATE) & 0x1f) != STATE_STROBE_FS_ON);
1447:bluetooth_rxtx.c **** 		cc2400_strobe(STX);
1448:bluetooth_rxtx.c **** 
1449:bluetooth_rxtx.c **** 		handle_usb(clkn);
1450:bluetooth_rxtx.c **** 	}
1451:bluetooth_rxtx.c **** 
1452:bluetooth_rxtx.c **** #ifdef UBERTOOTH_ONE
1453:bluetooth_rxtx.c **** 	PAEN_CLR;
1454:bluetooth_rxtx.c **** #endif
1455:bluetooth_rxtx.c **** 
1456:bluetooth_rxtx.c **** 	// reset GIO
1457:bluetooth_rxtx.c **** 	cc2400_set(IOCFG, gio_save);
1458:bluetooth_rxtx.c **** }
1459:bluetooth_rxtx.c **** 
1460:bluetooth_rxtx.c **** /* set LE access address */
1461:bluetooth_rxtx.c **** static void le_set_access_address(u32 aa) {
 458              		.loc 1 1461 0
 459              		.cfi_startproc
 460              		@ args = 0, pretend = 0, frame = 0
 461              		@ frame_needed = 0, uses_anonymous_args = 0
 462              	.LVL47:
 463 0000 10B5     		push	{r4, lr}
 464              		.cfi_def_cfa_offset 8
ARM GAS  /var/folders/s6/4bph2j8d1nvcsgz5bgm0yhx00000gn/T//ccF5ee78.s 			page 36


 465              		.cfi_offset 4, -8
 466              		.cfi_offset 14, -4
1462:bluetooth_rxtx.c **** 	u32 aa_rev;
1463:bluetooth_rxtx.c **** 
1464:bluetooth_rxtx.c **** 	le.access_address = aa;
 467              		.loc 1 1464 0
 468 0002 044C     		ldr	r4, .L42
 469 0004 6060     		str	r0, [r4, #4]
1465:bluetooth_rxtx.c **** 	aa_rev = rbit(aa);
 470              		.loc 1 1465 0
 471 0006 FFF7FEFF 		bl	rbit
 472              	.LVL48:
1466:bluetooth_rxtx.c **** 	le.syncl = aa_rev & 0xffff;
 473              		.loc 1 1466 0
 474 000a 6081     		strh	r0, [r4, #10]	@ movhi
1467:bluetooth_rxtx.c **** 	le.synch = aa_rev >> 16;
 475              		.loc 1 1467 0
 476 000c 000C     		lsrs	r0, r0, #16
 477              	.LVL49:
 478 000e 2081     		strh	r0, [r4, #8]	@ movhi
 479 0010 10BD     		pop	{r4, pc}
 480              	.L43:
 481 0012 00BF     		.align	2
 482              	.L42:
 483 0014 00000000 		.word	.LANCHOR1
 484              		.cfi_endproc
 485              	.LFE18:
 487              		.section	.text.cc2400_idle,"ax",%progbits
 488              		.align	1
 489              		.thumb
 490              		.thumb_func
 492              	cc2400_idle:
 493              	.LFB7:
 839:bluetooth_rxtx.c **** 	cc2400_strobe(SRFOFF);
 494              		.loc 1 839 0
 495              		.cfi_startproc
 496              		@ args = 0, pretend = 0, frame = 0
 497              		@ frame_needed = 0, uses_anonymous_args = 0
 498 0000 10B5     		push	{r4, lr}
 499              		.cfi_def_cfa_offset 8
 500              		.cfi_offset 4, -8
 501              		.cfi_offset 14, -4
 840:bluetooth_rxtx.c **** 	while ((cc2400_status() & FS_LOCK)); // need to wait for unlock?
 502              		.loc 1 840 0
 503 0002 6420     		movs	r0, #100
 504 0004 FFF7FEFF 		bl	cc2400_strobe
 505              	.LVL50:
 506              	.L45:
 841:bluetooth_rxtx.c **** 
 507              		.loc 1 841 0 discriminator 1
 508 0008 FFF7FEFF 		bl	cc2400_status
 509              	.LVL51:
 510 000c 00F00400 		and	r0, r0, #4
 511 0010 00F0FF04 		and	r4, r0, #255
 512 0014 0028     		cmp	r0, #0
 513 0016 F7D1     		bne	.L45
 844:bluetooth_rxtx.c **** 	HGM_CLR;
ARM GAS  /var/folders/s6/4bph2j8d1nvcsgz5bgm0yhx00000gn/T//ccF5ee78.s 			page 37


 514              		.loc 1 844 0
 515 0018 214B     		ldr	r3, .L47
 516 001a 8022     		movs	r2, #128
 517 001c 1A60     		str	r2, [r3]
 848:bluetooth_rxtx.c **** 	TXLED_CLR;
 518              		.loc 1 848 0
 519 001e 1021     		movs	r1, #16
 845:bluetooth_rxtx.c **** #endif
 520              		.loc 1 845 0
 521 0020 4FF48072 		mov	r2, #256
 522 0024 1A60     		str	r2, [r3]
 848:bluetooth_rxtx.c **** 	TXLED_CLR;
 523              		.loc 1 848 0
 524 0026 43F8201C 		str	r1, [r3, #-32]
 849:bluetooth_rxtx.c **** 	USRLED_CLR;
 525              		.loc 1 849 0
 526 002a 43F8202C 		str	r2, [r3, #-32]
 850:bluetooth_rxtx.c **** 
 527              		.loc 1 850 0
 528 002e 0222     		movs	r2, #2
 529 0030 43F8202C 		str	r2, [r3, #-32]
 852:bluetooth_rxtx.c **** 	dio_ssp_stop();
 530              		.loc 1 852 0
 531 0034 FFF7FEFF 		bl	clkn_stop
 532              	.LVL52:
 853:bluetooth_rxtx.c **** 	cs_reset();
 533              		.loc 1 853 0
 534 0038 FFF7FEFF 		bl	dio_ssp_stop
 535              	.LVL53:
 854:bluetooth_rxtx.c **** 	rssi_reset();
 536              		.loc 1 854 0
 537 003c FFF7FEFF 		bl	cs_reset
 538              	.LVL54:
 855:bluetooth_rxtx.c **** 
 539              		.loc 1 855 0
 540 0040 FFF7FEFF 		bl	rssi_reset
 541              	.LVL55:
 860:bluetooth_rxtx.c **** 	hop_direct_channel = 0;
 542              		.loc 1 860 0
 543 0044 40F68911 		movw	r1, #2441
 858:bluetooth_rxtx.c **** 	do_hop = 0;
 544              		.loc 1 858 0
 545 0048 164B     		ldr	r3, .L47+4
 860:bluetooth_rxtx.c **** 	hop_direct_channel = 0;
 546              		.loc 1 860 0
 547 004a 174A     		ldr	r2, .L47+8
 858:bluetooth_rxtx.c **** 	do_hop = 0;
 548              		.loc 1 858 0
 549 004c 9C72     		strb	r4, [r3, #10]
 859:bluetooth_rxtx.c **** 	channel = 2441;
 550              		.loc 1 859 0
 551 004e DC72     		strb	r4, [r3, #11]
 860:bluetooth_rxtx.c **** 	hop_direct_channel = 0;
 552              		.loc 1 860 0
 553 0050 1180     		strh	r1, [r2]	@ movhi
 862:bluetooth_rxtx.c **** 	requested_channel = 0;
 554              		.loc 1 862 0
ARM GAS  /var/folders/s6/4bph2j8d1nvcsgz5bgm0yhx00000gn/T//ccF5ee78.s 			page 38


 555 0052 9E21     		movs	r1, #158
 861:bluetooth_rxtx.c **** 	hop_timeout = 158;
 556              		.loc 1 861 0
 557 0054 9C81     		strh	r4, [r3, #12]	@ movhi
 862:bluetooth_rxtx.c **** 	requested_channel = 0;
 558              		.loc 1 862 0
 559 0056 A2F84810 		strh	r1, [r2, #72]	@ movhi
 864:bluetooth_rxtx.c **** 
 560              		.loc 1 864 0
 561 005a 40F66211 		movw	r1, #2402
 863:bluetooth_rxtx.c **** 	le_adv_channel = 2402;
 562              		.loc 1 863 0
 563 005e DC81     		strh	r4, [r3, #14]	@ movhi
 864:bluetooth_rxtx.c **** 
 564              		.loc 1 864 0
 565 0060 A2F84A10 		strh	r1, [r2, #74]	@ movhi
 868:bluetooth_rxtx.c **** 	idle_buf_clk100ns = 0;
 566              		.loc 1 868 0
 567 0064 9C70     		strb	r4, [r3, #2]
 869:bluetooth_rxtx.c **** 	idle_buf_channel = 0;
 568              		.loc 1 869 0
 569 0066 5C60     		str	r4, [r3, #4]
 870:bluetooth_rxtx.c **** 	dma_discard = 0;
 570              		.loc 1 870 0
 571 0068 1C81     		strh	r4, [r3, #8]	@ movhi
 871:bluetooth_rxtx.c **** 	status = 0;
 572              		.loc 1 871 0
 573 006a 1C74     		strb	r4, [r3, #16]
 872:bluetooth_rxtx.c **** 
 574              		.loc 1 872 0
 575 006c 5C70     		strb	r4, [r3, #1]
 875:bluetooth_rxtx.c **** 	requested_mode = MODE_IDLE;
 576              		.loc 1 875 0
 577 006e 5C74     		strb	r4, [r3, #17]
 876:bluetooth_rxtx.c **** 	jam_mode = JAM_NONE;
 578              		.loc 1 876 0
 579 0070 9C74     		strb	r4, [r3, #18]
 877:bluetooth_rxtx.c **** 	ego_mode = EGO_FOLLOW;
 580              		.loc 1 877 0
 581 0072 DC74     		strb	r4, [r3, #19]
 878:bluetooth_rxtx.c **** 
 582              		.loc 1 878 0
 583 0074 1C75     		strb	r4, [r3, #20]
 880:bluetooth_rxtx.c **** 
 584              		.loc 1 880 0
 585 0076 1C70     		strb	r4, [r3]
 883:bluetooth_rxtx.c **** 	high_freq = 2483;
 586              		.loc 1 883 0
 587 0078 4FF41663 		mov	r3, #2400
 588 007c A2F84C30 		strh	r3, [r2, #76]	@ movhi
 884:bluetooth_rxtx.c **** 	rssi_threshold = -30;
 589              		.loc 1 884 0
 590 0080 40F6B313 		movw	r3, #2483
 591 0084 A2F84E30 		strh	r3, [r2, #78]	@ movhi
 885:bluetooth_rxtx.c **** 
 592              		.loc 1 885 0
 593 0088 E223     		movs	r3, #226
ARM GAS  /var/folders/s6/4bph2j8d1nvcsgz5bgm0yhx00000gn/T//ccF5ee78.s 			page 39


 594 008a 82F85030 		strb	r3, [r2, #80]
 887:bluetooth_rxtx.c **** 	target.syncword = 0;
 595              		.loc 1 887 0
 596 008e 074B     		ldr	r3, .L47+12
 597 0090 0020     		movs	r0, #0
 598 0092 0021     		movs	r1, #0
 599 0094 C3E90001 		strd	r0, [r3]
 888:bluetooth_rxtx.c **** }
 600              		.loc 1 888 0
 601 0098 C3E90201 		strd	r0, [r3, #8]
 602 009c 10BD     		pop	{r4, pc}
 603              	.L48:
 604 009e 00BF     		.align	2
 605              	.L47:
 606 00a0 5CC00920 		.word	537509980
 607 00a4 00000000 		.word	.LANCHOR0
 608 00a8 00000000 		.word	.LANCHOR1
 609 00ac 00000000 		.word	target
 610              		.cfi_endproc
 611              	.LFE7:
 613              		.section	.text.cb_follow_le,"ax",%progbits
 614              		.align	1
 615              		.global	cb_follow_le
 616              		.thumb
 617              		.thumb_func
 619              	cb_follow_le:
 620              	.LFB24:
1468:bluetooth_rxtx.c **** }
1469:bluetooth_rxtx.c **** 
1470:bluetooth_rxtx.c **** /* reset le state, called by bt_generic_le and bt_follow_le() */
1471:bluetooth_rxtx.c **** void reset_le() {
1472:bluetooth_rxtx.c **** 	le_set_access_address(0x8e89bed6);     // advertising channel access address
1473:bluetooth_rxtx.c **** 	le.crc_init  = 0x555555;               // advertising channel CRCInit
1474:bluetooth_rxtx.c **** 	le.crc_init_reversed = 0xAAAAAA;
1475:bluetooth_rxtx.c **** 	le.crc_verify = 0;
1476:bluetooth_rxtx.c **** 	le.last_packet = 0;
1477:bluetooth_rxtx.c **** 
1478:bluetooth_rxtx.c **** 	le.link_state = LINK_INACTIVE;
1479:bluetooth_rxtx.c **** 
1480:bluetooth_rxtx.c **** 	le.channel_idx = 0;
1481:bluetooth_rxtx.c **** 	le.channel_increment = 0;
1482:bluetooth_rxtx.c **** 
1483:bluetooth_rxtx.c **** 	le.conn_epoch = 0;
1484:bluetooth_rxtx.c **** 	le.interval_timer = 0;
1485:bluetooth_rxtx.c **** 	le.conn_interval = 0;
1486:bluetooth_rxtx.c **** 	le.conn_interval = 0;
1487:bluetooth_rxtx.c **** 	le.conn_count = 0;
1488:bluetooth_rxtx.c **** 
1489:bluetooth_rxtx.c **** 	le.win_size = 0;
1490:bluetooth_rxtx.c **** 	le.win_offset = 0;
1491:bluetooth_rxtx.c **** 
1492:bluetooth_rxtx.c **** 	le.update_pending = 0;
1493:bluetooth_rxtx.c **** 	le.update_instant = 0;
1494:bluetooth_rxtx.c **** 	le.interval_update = 0;
1495:bluetooth_rxtx.c **** 	le.win_size_update = 0;
1496:bluetooth_rxtx.c **** 	le.win_offset_update = 0;
1497:bluetooth_rxtx.c **** 
ARM GAS  /var/folders/s6/4bph2j8d1nvcsgz5bgm0yhx00000gn/T//ccF5ee78.s 			page 40


1498:bluetooth_rxtx.c **** 	do_hop = 0;
1499:bluetooth_rxtx.c **** }
1500:bluetooth_rxtx.c **** 
1501:bluetooth_rxtx.c **** // reset LE Promisc state
1502:bluetooth_rxtx.c **** void reset_le_promisc(void) {
1503:bluetooth_rxtx.c **** 	memset(&le_promisc, 0, sizeof(le_promisc));
1504:bluetooth_rxtx.c **** 	le_promisc.smallest_hop_interval = 0xffffffff;
1505:bluetooth_rxtx.c **** }
1506:bluetooth_rxtx.c **** 
1507:bluetooth_rxtx.c **** /* generic le mode */
1508:bluetooth_rxtx.c **** void bt_generic_le(u8 active_mode)
1509:bluetooth_rxtx.c **** {
1510:bluetooth_rxtx.c **** 	u8 hold;
1511:bluetooth_rxtx.c **** 	int i, j;
1512:bluetooth_rxtx.c **** 	int8_t rssi, rssi_at_trigger;
1513:bluetooth_rxtx.c **** 
1514:bluetooth_rxtx.c **** 	modulation = MOD_BT_LOW_ENERGY;
1515:bluetooth_rxtx.c **** 	mode = active_mode;
1516:bluetooth_rxtx.c **** 
1517:bluetooth_rxtx.c **** 	reset_le();
1518:bluetooth_rxtx.c **** 
1519:bluetooth_rxtx.c **** 	// enable USB interrupts
1520:bluetooth_rxtx.c **** 	ISER0 = ISER0_ISE_USB;
1521:bluetooth_rxtx.c **** 
1522:bluetooth_rxtx.c **** 	RXLED_CLR;
1523:bluetooth_rxtx.c **** 
1524:bluetooth_rxtx.c **** 	queue_init();
1525:bluetooth_rxtx.c **** 	dio_ssp_init();
1526:bluetooth_rxtx.c **** 	dma_init();
1527:bluetooth_rxtx.c **** 	dio_ssp_start();
1528:bluetooth_rxtx.c **** 	cc2400_rx();
1529:bluetooth_rxtx.c **** 
1530:bluetooth_rxtx.c **** 	cs_trigger_enable();
1531:bluetooth_rxtx.c **** 
1532:bluetooth_rxtx.c **** 	hold = 0;
1533:bluetooth_rxtx.c **** 
1534:bluetooth_rxtx.c **** 	while (requested_mode == active_mode) {
1535:bluetooth_rxtx.c **** 		if (requested_channel != 0) {
1536:bluetooth_rxtx.c **** 			cc2400_strobe(SRFOFF);
1537:bluetooth_rxtx.c **** 			while ((cc2400_status() & FS_LOCK)); // need to wait for unlock?
1538:bluetooth_rxtx.c **** 
1539:bluetooth_rxtx.c **** 			/* Retune */
1540:bluetooth_rxtx.c **** 			cc2400_set(FSDIV, channel - 1);
1541:bluetooth_rxtx.c **** 
1542:bluetooth_rxtx.c **** 			/* Wait for lock */
1543:bluetooth_rxtx.c **** 			cc2400_strobe(SFSON);
1544:bluetooth_rxtx.c **** 			while (!(cc2400_status() & FS_LOCK));
1545:bluetooth_rxtx.c **** 
1546:bluetooth_rxtx.c **** 			/* RX mode */
1547:bluetooth_rxtx.c **** 			cc2400_strobe(SRX);
1548:bluetooth_rxtx.c **** 
1549:bluetooth_rxtx.c **** 			requested_channel = 0;
1550:bluetooth_rxtx.c **** 		}
1551:bluetooth_rxtx.c **** 
1552:bluetooth_rxtx.c **** 		if (do_hop) {
1553:bluetooth_rxtx.c **** 			hop();
1554:bluetooth_rxtx.c **** 		} else {
ARM GAS  /var/folders/s6/4bph2j8d1nvcsgz5bgm0yhx00000gn/T//ccF5ee78.s 			page 41


1555:bluetooth_rxtx.c **** 			TXLED_CLR;
1556:bluetooth_rxtx.c **** 		}
1557:bluetooth_rxtx.c **** 
1558:bluetooth_rxtx.c **** 		RXLED_CLR;
1559:bluetooth_rxtx.c **** 
1560:bluetooth_rxtx.c **** 		/* Wait for DMA. Meanwhile keep track of RSSI. */
1561:bluetooth_rxtx.c **** 		rssi_reset();
1562:bluetooth_rxtx.c **** 		rssi_at_trigger = INT8_MIN;
1563:bluetooth_rxtx.c **** 		while ((rx_tc == 0) && (rx_err == 0))
1564:bluetooth_rxtx.c **** 		{
1565:bluetooth_rxtx.c **** 			rssi = (int8_t)(cc2400_get(RSSI) >> 8);
1566:bluetooth_rxtx.c **** 			if (cs_trigger && (rssi_at_trigger == INT8_MIN)) {
1567:bluetooth_rxtx.c **** 				rssi = MAX(rssi,(cs_threshold_cur+54));
1568:bluetooth_rxtx.c **** 				rssi_at_trigger = rssi;
1569:bluetooth_rxtx.c **** 			}
1570:bluetooth_rxtx.c **** 			rssi_add(rssi);
1571:bluetooth_rxtx.c **** 		}
1572:bluetooth_rxtx.c **** 
1573:bluetooth_rxtx.c **** 		if (rx_err) {
1574:bluetooth_rxtx.c **** 			status |= DMA_ERROR;
1575:bluetooth_rxtx.c **** 		}
1576:bluetooth_rxtx.c **** 
1577:bluetooth_rxtx.c **** 		/* No DMA transfer? */
1578:bluetooth_rxtx.c **** 		if (!rx_tc)
1579:bluetooth_rxtx.c **** 			goto rx_continue;
1580:bluetooth_rxtx.c **** 
1581:bluetooth_rxtx.c **** 		/* Missed a DMA trasfer? */
1582:bluetooth_rxtx.c **** 		if (rx_tc > 1)
1583:bluetooth_rxtx.c **** 			status |= DMA_OVERFLOW;
1584:bluetooth_rxtx.c **** 
1585:bluetooth_rxtx.c **** 		rssi_iir_update(channel);
1586:bluetooth_rxtx.c **** 
1587:bluetooth_rxtx.c **** 		/* Set squelch hold if there was either a CS trigger, squelch
1588:bluetooth_rxtx.c **** 		 * is disabled, or if the current rssi_max is above the same
1589:bluetooth_rxtx.c **** 		 * threshold. Currently, this is redundant, but allows for
1590:bluetooth_rxtx.c **** 		 * per-channel or other rssi triggers in the future. */
1591:bluetooth_rxtx.c **** 		if (cs_trigger || cs_no_squelch) {
1592:bluetooth_rxtx.c **** 			status |= CS_TRIGGER;
1593:bluetooth_rxtx.c **** 			hold = CS_HOLD_TIME;
1594:bluetooth_rxtx.c **** 			cs_trigger = 0;
1595:bluetooth_rxtx.c **** 		}
1596:bluetooth_rxtx.c **** 
1597:bluetooth_rxtx.c **** 		if (rssi_max >= (cs_threshold_cur + 54)) {
1598:bluetooth_rxtx.c **** 			status |= RSSI_TRIGGER;
1599:bluetooth_rxtx.c **** 			hold = CS_HOLD_TIME;
1600:bluetooth_rxtx.c **** 		}
1601:bluetooth_rxtx.c **** 
1602:bluetooth_rxtx.c **** 		/* Hold expired? Ignore data. */
1603:bluetooth_rxtx.c **** 		if (hold == 0) {
1604:bluetooth_rxtx.c **** 			goto rx_continue;
1605:bluetooth_rxtx.c **** 		}
1606:bluetooth_rxtx.c **** 		hold--;
1607:bluetooth_rxtx.c **** 
1608:bluetooth_rxtx.c **** 		// copy the previously unpacked symbols to the front of the buffer
1609:bluetooth_rxtx.c **** 		memcpy(unpacked, unpacked + DMA_SIZE*8, DMA_SIZE*8);
1610:bluetooth_rxtx.c **** 
1611:bluetooth_rxtx.c **** 		// unpack the new packet to the end of the buffer
ARM GAS  /var/folders/s6/4bph2j8d1nvcsgz5bgm0yhx00000gn/T//ccF5ee78.s 			page 42


1612:bluetooth_rxtx.c **** 		for (i = 0; i < DMA_SIZE; ++i) {
1613:bluetooth_rxtx.c **** 			/* output one byte for each received symbol (0x00 or 0x01) */
1614:bluetooth_rxtx.c **** 			for (j = 0; j < 8; ++j) {
1615:bluetooth_rxtx.c **** 				unpacked[DMA_SIZE*8 + i * 8 + j] = (idle_rxbuf[i] & 0x80) >> 7;
1616:bluetooth_rxtx.c **** 				idle_rxbuf[i] <<= 1;
1617:bluetooth_rxtx.c **** 			}
1618:bluetooth_rxtx.c **** 		}
1619:bluetooth_rxtx.c **** 
1620:bluetooth_rxtx.c **** 		int ret = data_cb(unpacked);
1621:bluetooth_rxtx.c **** 		if (!ret) break;
1622:bluetooth_rxtx.c **** 
1623:bluetooth_rxtx.c **** 	rx_continue:
1624:bluetooth_rxtx.c **** 		rx_tc = 0;
1625:bluetooth_rxtx.c **** 		rx_err = 0;
1626:bluetooth_rxtx.c **** 	}
1627:bluetooth_rxtx.c **** 
1628:bluetooth_rxtx.c **** 	// disable USB interrupts
1629:bluetooth_rxtx.c **** 	ICER0 = ICER0_ICE_USB;
1630:bluetooth_rxtx.c **** 
1631:bluetooth_rxtx.c **** 	// reset the radio completely
1632:bluetooth_rxtx.c **** 	cc2400_idle();
1633:bluetooth_rxtx.c **** 	dio_ssp_stop();
1634:bluetooth_rxtx.c **** 	cs_trigger_disable();
1635:bluetooth_rxtx.c **** }
1636:bluetooth_rxtx.c **** 
1637:bluetooth_rxtx.c **** 
1638:bluetooth_rxtx.c **** void bt_le_sync(u8 active_mode)
1639:bluetooth_rxtx.c **** {
1640:bluetooth_rxtx.c **** 	int i;
1641:bluetooth_rxtx.c **** 	int8_t rssi;
1642:bluetooth_rxtx.c **** 	static int restart_jamming = 0;
1643:bluetooth_rxtx.c **** 
1644:bluetooth_rxtx.c **** 	modulation = MOD_BT_LOW_ENERGY;
1645:bluetooth_rxtx.c **** 	mode = active_mode;
1646:bluetooth_rxtx.c **** 
1647:bluetooth_rxtx.c **** 	le.link_state = LINK_LISTENING;
1648:bluetooth_rxtx.c **** 
1649:bluetooth_rxtx.c **** 	// enable USB interrupts
1650:bluetooth_rxtx.c **** 	ISER0 = ISER0_ISE_USB;
1651:bluetooth_rxtx.c **** 
1652:bluetooth_rxtx.c **** 	RXLED_CLR;
1653:bluetooth_rxtx.c **** 
1654:bluetooth_rxtx.c **** 	queue_init();
1655:bluetooth_rxtx.c **** 	dio_ssp_init();
1656:bluetooth_rxtx.c **** 	dma_init_le();
1657:bluetooth_rxtx.c **** 	dio_ssp_start();
1658:bluetooth_rxtx.c **** 
1659:bluetooth_rxtx.c **** 	cc2400_rx_sync(rbit(le.access_address)); // bit-reversed access address
1660:bluetooth_rxtx.c **** 
1661:bluetooth_rxtx.c **** 	while (requested_mode == active_mode) {
1662:bluetooth_rxtx.c **** 		if (requested_channel != 0) {
1663:bluetooth_rxtx.c **** 			cc2400_strobe(SRFOFF);
1664:bluetooth_rxtx.c **** 			while ((cc2400_status() & FS_LOCK)); // need to wait for unlock?
1665:bluetooth_rxtx.c **** 
1666:bluetooth_rxtx.c **** 			/* Retune */
1667:bluetooth_rxtx.c **** 			cc2400_set(FSDIV, channel - 1);
1668:bluetooth_rxtx.c **** 
ARM GAS  /var/folders/s6/4bph2j8d1nvcsgz5bgm0yhx00000gn/T//ccF5ee78.s 			page 43


1669:bluetooth_rxtx.c **** 			/* Wait for lock */
1670:bluetooth_rxtx.c **** 			cc2400_strobe(SFSON);
1671:bluetooth_rxtx.c **** 			while (!(cc2400_status() & FS_LOCK));
1672:bluetooth_rxtx.c **** 
1673:bluetooth_rxtx.c **** 			/* RX mode */
1674:bluetooth_rxtx.c **** 			cc2400_strobe(SRX);
1675:bluetooth_rxtx.c **** 
1676:bluetooth_rxtx.c **** 			requested_channel = 0;
1677:bluetooth_rxtx.c **** 		}
1678:bluetooth_rxtx.c **** 
1679:bluetooth_rxtx.c **** 		RXLED_CLR;
1680:bluetooth_rxtx.c **** 
1681:bluetooth_rxtx.c **** 		/* Wait for DMA. Meanwhile keep track of RSSI. */
1682:bluetooth_rxtx.c **** 		rssi_reset();
1683:bluetooth_rxtx.c **** 		while ((rx_tc == 0) && (rx_err == 0) && (do_hop == 0) && requested_mode == active_mode)
1684:bluetooth_rxtx.c **** 			;
1685:bluetooth_rxtx.c **** 
1686:bluetooth_rxtx.c **** 		rssi = (int8_t)(cc2400_get(RSSI) >> 8);
1687:bluetooth_rxtx.c **** 		rssi_min = rssi_max = rssi;
1688:bluetooth_rxtx.c **** 
1689:bluetooth_rxtx.c **** 		if (requested_mode != active_mode) {
1690:bluetooth_rxtx.c **** 			goto cleanup;
1691:bluetooth_rxtx.c **** 		}
1692:bluetooth_rxtx.c **** 
1693:bluetooth_rxtx.c **** 		if (rx_err) {
1694:bluetooth_rxtx.c **** 			status |= DMA_ERROR;
1695:bluetooth_rxtx.c **** 		}
1696:bluetooth_rxtx.c **** 
1697:bluetooth_rxtx.c **** 		if (do_hop)
1698:bluetooth_rxtx.c **** 			goto rx_flush;
1699:bluetooth_rxtx.c **** 
1700:bluetooth_rxtx.c **** 		/* No DMA transfer? */
1701:bluetooth_rxtx.c **** 		if (!rx_tc)
1702:bluetooth_rxtx.c **** 			continue;
1703:bluetooth_rxtx.c **** 
1704:bluetooth_rxtx.c **** 		/////////////////////
1705:bluetooth_rxtx.c **** 		// process the packet
1706:bluetooth_rxtx.c **** 
1707:bluetooth_rxtx.c **** 		uint32_t packet[48/4+1] = { 0, };
1708:bluetooth_rxtx.c **** 		u8 *p = (u8 *)packet;
1709:bluetooth_rxtx.c **** 		packet[0] = le.access_address;
1710:bluetooth_rxtx.c **** 
1711:bluetooth_rxtx.c **** 		const uint32_t *whit = whitening_word[btle_channel_index(channel-2402)];
1712:bluetooth_rxtx.c **** 		for (i = 0; i < 4; i+= 4) {
1713:bluetooth_rxtx.c **** 			uint32_t v = rxbuf1[i+0] << 24
1714:bluetooth_rxtx.c **** 					   | rxbuf1[i+1] << 16
1715:bluetooth_rxtx.c **** 					   | rxbuf1[i+2] << 8
1716:bluetooth_rxtx.c **** 					   | rxbuf1[i+3] << 0;
1717:bluetooth_rxtx.c **** 			packet[i/4+1] = rbit(v) ^ whit[i/4];
1718:bluetooth_rxtx.c **** 		}
1719:bluetooth_rxtx.c **** 
1720:bluetooth_rxtx.c **** 		unsigned len = (p[5] & 0x3f) + 2;
1721:bluetooth_rxtx.c **** 		if (len > 39)
1722:bluetooth_rxtx.c **** 			goto rx_flush;
1723:bluetooth_rxtx.c **** 
1724:bluetooth_rxtx.c **** 		// transfer the minimum number of bytes from the CC2400
1725:bluetooth_rxtx.c **** 		// this allows us enough time to resume RX for subsequent packets on the same channel
ARM GAS  /var/folders/s6/4bph2j8d1nvcsgz5bgm0yhx00000gn/T//ccF5ee78.s 			page 44


1726:bluetooth_rxtx.c **** 		unsigned total_transfers = ((len + 3) + 4 - 1) / 4;
1727:bluetooth_rxtx.c **** 		if (total_transfers < 11) {
1728:bluetooth_rxtx.c **** 			while (DMACC0DestAddr < (uint32_t)rxbuf1 + 4 * total_transfers && rx_err == 0)
1729:bluetooth_rxtx.c **** 				;
1730:bluetooth_rxtx.c **** 		} else { // max transfers? just wait till DMA's done
1731:bluetooth_rxtx.c **** 			while (DMACC0Config & DMACCxConfig_E && rx_err == 0)
1732:bluetooth_rxtx.c **** 				;
1733:bluetooth_rxtx.c **** 		}
1734:bluetooth_rxtx.c **** 		DIO_SSP_DMACR &= ~SSPDMACR_RXDMAE;
1735:bluetooth_rxtx.c **** 
1736:bluetooth_rxtx.c **** 		// strobe SFSON to allow the resync to occur while we process the packet
1737:bluetooth_rxtx.c **** 		cc2400_strobe(SFSON);
1738:bluetooth_rxtx.c **** 
1739:bluetooth_rxtx.c **** 		// unwhiten the rest of the packet
1740:bluetooth_rxtx.c **** 		for (i = 4; i < 44; i += 4) {
1741:bluetooth_rxtx.c **** 			uint32_t v = rxbuf1[i+0] << 24
1742:bluetooth_rxtx.c **** 					   | rxbuf1[i+1] << 16
1743:bluetooth_rxtx.c **** 					   | rxbuf1[i+2] << 8
1744:bluetooth_rxtx.c **** 					   | rxbuf1[i+3] << 0;
1745:bluetooth_rxtx.c **** 			packet[i/4+1] = rbit(v) ^ whit[i/4];
1746:bluetooth_rxtx.c **** 		}
1747:bluetooth_rxtx.c **** 
1748:bluetooth_rxtx.c **** 		if (le.crc_verify) {
1749:bluetooth_rxtx.c **** 			u32 calc_crc = btle_crcgen_lut(le.crc_init_reversed, p + 4, len);
1750:bluetooth_rxtx.c **** 			u32 wire_crc = (p[4+len+2] << 16)
1751:bluetooth_rxtx.c **** 						 | (p[4+len+1] << 8)
1752:bluetooth_rxtx.c **** 						 | (p[4+len+0] << 0);
1753:bluetooth_rxtx.c **** 			if (calc_crc != wire_crc) // skip packets with a bad CRC
1754:bluetooth_rxtx.c **** 				goto rx_flush;
1755:bluetooth_rxtx.c **** 		}
1756:bluetooth_rxtx.c **** 
1757:bluetooth_rxtx.c **** 
1758:bluetooth_rxtx.c **** 		RXLED_SET;
1759:bluetooth_rxtx.c **** 		packet_cb((uint8_t *)packet);
1760:bluetooth_rxtx.c **** 
1761:bluetooth_rxtx.c **** 		// disable USB interrupts while we touch USB data structures
1762:bluetooth_rxtx.c **** 		ICER0 = ICER0_ICE_USB;
1763:bluetooth_rxtx.c **** 		enqueue(LE_PACKET, (uint8_t *)packet);
1764:bluetooth_rxtx.c **** 		ISER0 = ISER0_ISE_USB;
1765:bluetooth_rxtx.c **** 
1766:bluetooth_rxtx.c **** 		le.last_packet = CLK100NS;
1767:bluetooth_rxtx.c **** 
1768:bluetooth_rxtx.c **** 	rx_flush:
1769:bluetooth_rxtx.c **** 		// this might happen twice, but it's safe to do so
1770:bluetooth_rxtx.c **** 		cc2400_strobe(SFSON);
1771:bluetooth_rxtx.c **** 
1772:bluetooth_rxtx.c **** 		// flush any excess bytes from the SSP's buffer
1773:bluetooth_rxtx.c **** 		DIO_SSP_DMACR &= ~SSPDMACR_RXDMAE;
1774:bluetooth_rxtx.c **** 		while (SSP1SR & SSPSR_RNE) {
1775:bluetooth_rxtx.c **** 			u8 tmp = (u8)DIO_SSP_DR;
1776:bluetooth_rxtx.c **** 		}
1777:bluetooth_rxtx.c **** 
1778:bluetooth_rxtx.c **** 		// timeout - FIXME this is an ugly hack
1779:bluetooth_rxtx.c **** 		u32 now = CLK100NS;
1780:bluetooth_rxtx.c **** 		if (now < le.last_packet)
1781:bluetooth_rxtx.c **** 			now += 3276800000; // handle rollover
1782:bluetooth_rxtx.c **** 		if  ( // timeout
ARM GAS  /var/folders/s6/4bph2j8d1nvcsgz5bgm0yhx00000gn/T//ccF5ee78.s 			page 45


1783:bluetooth_rxtx.c **** 			((le.link_state == LINK_CONNECTED || le.link_state == LINK_CONN_PENDING)
1784:bluetooth_rxtx.c **** 			&& (now - le.last_packet > 50000000))
1785:bluetooth_rxtx.c **** 			// jam finished
1786:bluetooth_rxtx.c **** 			|| (le_jam_count == 1)
1787:bluetooth_rxtx.c **** 			)
1788:bluetooth_rxtx.c **** 		{
1789:bluetooth_rxtx.c **** 			reset_le();
1790:bluetooth_rxtx.c **** 			le_jam_count = 0;
1791:bluetooth_rxtx.c **** 			TXLED_CLR;
1792:bluetooth_rxtx.c **** 
1793:bluetooth_rxtx.c **** 			if (jam_mode == JAM_ONCE) {
1794:bluetooth_rxtx.c **** 				jam_mode = JAM_NONE;
1795:bluetooth_rxtx.c **** 				requested_mode = MODE_IDLE;
1796:bluetooth_rxtx.c **** 				goto cleanup;
1797:bluetooth_rxtx.c **** 			}
1798:bluetooth_rxtx.c **** 
1799:bluetooth_rxtx.c **** 			// go back to promisc if the connection dies
1800:bluetooth_rxtx.c **** 			if (active_mode == MODE_BT_PROMISC_LE)
1801:bluetooth_rxtx.c **** 				goto cleanup;
1802:bluetooth_rxtx.c **** 
1803:bluetooth_rxtx.c **** 			le.link_state = LINK_LISTENING;
1804:bluetooth_rxtx.c **** 
1805:bluetooth_rxtx.c **** 			cc2400_strobe(SRFOFF);
1806:bluetooth_rxtx.c **** 			while ((cc2400_status() & FS_LOCK));
1807:bluetooth_rxtx.c **** 
1808:bluetooth_rxtx.c **** 			/* Retune */
1809:bluetooth_rxtx.c **** 			channel = le_adv_channel != 0 ? le_adv_channel : 2402;
1810:bluetooth_rxtx.c **** 			restart_jamming = 1;
1811:bluetooth_rxtx.c **** 		}
1812:bluetooth_rxtx.c **** 
1813:bluetooth_rxtx.c **** 		cc2400_set(SYNCL, le.syncl);
1814:bluetooth_rxtx.c **** 		cc2400_set(SYNCH, le.synch);
1815:bluetooth_rxtx.c **** 
1816:bluetooth_rxtx.c **** 		if (do_hop)
1817:bluetooth_rxtx.c **** 			hop();
1818:bluetooth_rxtx.c **** 
1819:bluetooth_rxtx.c **** 		//  you can jam but you keep turning off the light 
1820:bluetooth_rxtx.c **** 		if (le_jam_count > 0) {
1821:bluetooth_rxtx.c **** 			le_jam();
1822:bluetooth_rxtx.c **** 			--le_jam_count;
1823:bluetooth_rxtx.c **** 		} else {
1824:bluetooth_rxtx.c **** 			/* RX mode */
1825:bluetooth_rxtx.c **** 			dma_init_le();
1826:bluetooth_rxtx.c **** 			dio_ssp_start();
1827:bluetooth_rxtx.c **** 
1828:bluetooth_rxtx.c **** 			if (restart_jamming) {
1829:bluetooth_rxtx.c **** 				cc2400_rx_sync(rbit(le.access_address));
1830:bluetooth_rxtx.c **** 				restart_jamming = 0;
1831:bluetooth_rxtx.c **** 			} else {
1832:bluetooth_rxtx.c **** 				// wait till we're in FSLOCK before strobing RX
1833:bluetooth_rxtx.c **** 				while (!(cc2400_status() & FS_LOCK));
1834:bluetooth_rxtx.c **** 				cc2400_strobe(SRX);
1835:bluetooth_rxtx.c **** 			}
1836:bluetooth_rxtx.c **** 		}
1837:bluetooth_rxtx.c **** 
1838:bluetooth_rxtx.c **** 		rx_tc = 0;
1839:bluetooth_rxtx.c **** 		rx_err = 0;
ARM GAS  /var/folders/s6/4bph2j8d1nvcsgz5bgm0yhx00000gn/T//ccF5ee78.s 			page 46


1840:bluetooth_rxtx.c **** 	}
1841:bluetooth_rxtx.c **** 
1842:bluetooth_rxtx.c **** cleanup:
1843:bluetooth_rxtx.c **** 
1844:bluetooth_rxtx.c **** 	// disable USB interrupts
1845:bluetooth_rxtx.c **** 	ICER0 = ICER0_ICE_USB;
1846:bluetooth_rxtx.c **** 
1847:bluetooth_rxtx.c **** 	// reset the radio completely
1848:bluetooth_rxtx.c **** 	cc2400_idle();
1849:bluetooth_rxtx.c **** 	dio_ssp_stop();
1850:bluetooth_rxtx.c **** 	cs_trigger_disable();
1851:bluetooth_rxtx.c **** }
1852:bluetooth_rxtx.c **** 
1853:bluetooth_rxtx.c **** 
1854:bluetooth_rxtx.c **** void bt_le_sync_boss_master(u8 active_mode)
1855:bluetooth_rxtx.c **** {
1856:bluetooth_rxtx.c **** 
1857:bluetooth_rxtx.c **** 	int i;
1858:bluetooth_rxtx.c **** 	int8_t rssi;
1859:bluetooth_rxtx.c **** 	static int restart_jamming = 0;
1860:bluetooth_rxtx.c **** 
1861:bluetooth_rxtx.c **** 	modulation = MOD_BT_LOW_ENERGY;
1862:bluetooth_rxtx.c **** 	mode = active_mode;
1863:bluetooth_rxtx.c **** 
1864:bluetooth_rxtx.c **** 	le.link_state = LINK_LISTENING;
1865:bluetooth_rxtx.c **** 
1866:bluetooth_rxtx.c **** 	// enable USB interrupts
1867:bluetooth_rxtx.c **** 	ISER0 = ISER0_ISE_USB;
1868:bluetooth_rxtx.c **** 
1869:bluetooth_rxtx.c **** 	RXLED_CLR;
1870:bluetooth_rxtx.c **** 
1871:bluetooth_rxtx.c **** 	queue_init();
1872:bluetooth_rxtx.c **** 	dio_ssp_init();
1873:bluetooth_rxtx.c **** 	dma_init_le();
1874:bluetooth_rxtx.c **** 	dio_ssp_start();
1875:bluetooth_rxtx.c **** 
1876:bluetooth_rxtx.c **** 	cc2400_rx_sync(rbit(le.access_address)); // bit-reversed access address
1877:bluetooth_rxtx.c **** 
1878:bluetooth_rxtx.c **** 	while (requested_mode == active_mode) {
1879:bluetooth_rxtx.c **** 		if (requested_channel != 0) {
1880:bluetooth_rxtx.c **** 			cc2400_strobe(SRFOFF);
1881:bluetooth_rxtx.c **** 			while ((cc2400_status() & FS_LOCK)); // need to wait for unlock?
1882:bluetooth_rxtx.c **** 
1883:bluetooth_rxtx.c **** 			/* Retune */
1884:bluetooth_rxtx.c **** 			cc2400_set(FSDIV, channel - 1);
1885:bluetooth_rxtx.c **** 
1886:bluetooth_rxtx.c **** 			/* Wait for lock */
1887:bluetooth_rxtx.c **** 			cc2400_strobe(SFSON);
1888:bluetooth_rxtx.c **** 			while (!(cc2400_status() & FS_LOCK));
1889:bluetooth_rxtx.c **** 
1890:bluetooth_rxtx.c **** 			/* RX mode */
1891:bluetooth_rxtx.c **** 			cc2400_strobe(SRX);
1892:bluetooth_rxtx.c **** 
1893:bluetooth_rxtx.c **** 			requested_channel = 0;
1894:bluetooth_rxtx.c **** 		}
1895:bluetooth_rxtx.c **** 
1896:bluetooth_rxtx.c **** 		RXLED_CLR;
ARM GAS  /var/folders/s6/4bph2j8d1nvcsgz5bgm0yhx00000gn/T//ccF5ee78.s 			page 47


1897:bluetooth_rxtx.c **** 
1898:bluetooth_rxtx.c **** 		/* Wait for DMA. Meanwhile keep track of RSSI. */
1899:bluetooth_rxtx.c **** 		rssi_reset();
1900:bluetooth_rxtx.c **** 		while ((rx_tc == 0) && (rx_err == 0) && (do_hop == 0) && requested_mode == active_mode)
1901:bluetooth_rxtx.c **** 			;
1902:bluetooth_rxtx.c **** 
1903:bluetooth_rxtx.c **** 		rssi = (int8_t)(cc2400_get(RSSI) >> 8);
1904:bluetooth_rxtx.c **** 		rssi_min = rssi_max = rssi;
1905:bluetooth_rxtx.c **** 
1906:bluetooth_rxtx.c **** 		if (requested_mode != active_mode) {
1907:bluetooth_rxtx.c **** 			goto cleanup;
1908:bluetooth_rxtx.c **** 		}
1909:bluetooth_rxtx.c **** 
1910:bluetooth_rxtx.c **** 		if (rx_err) {
1911:bluetooth_rxtx.c **** 			status |= DMA_ERROR;
1912:bluetooth_rxtx.c **** 		}
1913:bluetooth_rxtx.c **** 
1914:bluetooth_rxtx.c **** 		if (do_hop)
1915:bluetooth_rxtx.c **** 			goto rx_flush;
1916:bluetooth_rxtx.c **** 
1917:bluetooth_rxtx.c **** 		/* No DMA transfer? */
1918:bluetooth_rxtx.c **** 		if (!rx_tc)
1919:bluetooth_rxtx.c **** 			continue;
1920:bluetooth_rxtx.c **** 
1921:bluetooth_rxtx.c **** 
1922:bluetooth_rxtx.c **** 		/////////////////////
1923:bluetooth_rxtx.c **** 		// process the packet
1924:bluetooth_rxtx.c **** 
1925:bluetooth_rxtx.c **** 		uint32_t packet[48/4+1] = { 0, };
1926:bluetooth_rxtx.c **** 		u8 *p = (u8 *)packet;
1927:bluetooth_rxtx.c **** 		packet[0] = le.access_address;
1928:bluetooth_rxtx.c **** 
1929:bluetooth_rxtx.c **** 
1930:bluetooth_rxtx.c **** 		const uint32_t *whit = whitening_word[btle_channel_index(channel-2402)];
1931:bluetooth_rxtx.c **** 		for (i = 0; i < 4; i+= 4) {
1932:bluetooth_rxtx.c **** 			uint32_t v = rxbuf1[i+0] << 24
1933:bluetooth_rxtx.c **** 					   | rxbuf1[i+1] << 16
1934:bluetooth_rxtx.c **** 					   | rxbuf1[i+2] << 8
1935:bluetooth_rxtx.c **** 					   | rxbuf1[i+3] << 0;
1936:bluetooth_rxtx.c **** 			packet[i/4+1] = rbit(v) ^ whit[i/4];
1937:bluetooth_rxtx.c **** 		}
1938:bluetooth_rxtx.c **** 
1939:bluetooth_rxtx.c **** 
1940:bluetooth_rxtx.c **** 		unsigned len = (p[5] & 0x3f) + 2;
1941:bluetooth_rxtx.c **** 		if (len > 39)
1942:bluetooth_rxtx.c **** 			goto rx_flush;
1943:bluetooth_rxtx.c **** 
1944:bluetooth_rxtx.c **** 
1945:bluetooth_rxtx.c **** 		// transfer the minimum number of bytes from the CC2400
1946:bluetooth_rxtx.c **** 		// this allows us enough time to resume RX for subsequent packets on the same channel
1947:bluetooth_rxtx.c **** 		unsigned total_transfers = ((len + 3) + 4 - 1) / 4;
1948:bluetooth_rxtx.c **** 		if (total_transfers < 11) {
1949:bluetooth_rxtx.c **** 			while (DMACC0DestAddr < (uint32_t)rxbuf1 + 4 * total_transfers && rx_err == 0)
1950:bluetooth_rxtx.c **** 				;
1951:bluetooth_rxtx.c **** 		} else { // max transfers? just wait till DMA's done
1952:bluetooth_rxtx.c **** 			while (DMACC0Config & DMACCxConfig_E && rx_err == 0)
1953:bluetooth_rxtx.c **** 				;
ARM GAS  /var/folders/s6/4bph2j8d1nvcsgz5bgm0yhx00000gn/T//ccF5ee78.s 			page 48


1954:bluetooth_rxtx.c **** 		}
1955:bluetooth_rxtx.c **** 		DIO_SSP_DMACR &= ~SSPDMACR_RXDMAE;
1956:bluetooth_rxtx.c **** 
1957:bluetooth_rxtx.c **** 		// strobe SFSON to allow the resync to occur while we process the packet
1958:bluetooth_rxtx.c **** 		cc2400_strobe(SFSON);
1959:bluetooth_rxtx.c **** 
1960:bluetooth_rxtx.c **** 
1961:bluetooth_rxtx.c **** 
1962:bluetooth_rxtx.c **** 		// unwhiten the rest of the packet
1963:bluetooth_rxtx.c **** 		for (i = 4; i < 44; i += 4) {
1964:bluetooth_rxtx.c **** 			uint32_t v = rxbuf1[i+0] << 24
1965:bluetooth_rxtx.c **** 					   | rxbuf1[i+1] << 16
1966:bluetooth_rxtx.c **** 					   | rxbuf1[i+2] << 8
1967:bluetooth_rxtx.c **** 					   | rxbuf1[i+3] << 0;
1968:bluetooth_rxtx.c **** 			packet[i/4+1] = rbit(v) ^ whit[i/4];
1969:bluetooth_rxtx.c **** 		}
1970:bluetooth_rxtx.c **** 
1971:bluetooth_rxtx.c **** 
1972:bluetooth_rxtx.c **** 		if (le.crc_verify) {
1973:bluetooth_rxtx.c **** 			u32 calc_crc = btle_crcgen_lut(le.crc_init_reversed, p + 4, len);
1974:bluetooth_rxtx.c **** 			u32 wire_crc = (p[4+len+2] << 16)
1975:bluetooth_rxtx.c **** 						 | (p[4+len+1] << 8)
1976:bluetooth_rxtx.c **** 						 | (p[4+len+0] << 0);
1977:bluetooth_rxtx.c **** 			if (calc_crc != wire_crc) // skip packets with a bad CRC
1978:bluetooth_rxtx.c **** 				goto rx_flush;
1979:bluetooth_rxtx.c **** 		}
1980:bluetooth_rxtx.c **** 
1981:bluetooth_rxtx.c **** 
1982:bluetooth_rxtx.c **** 		/**
1983:bluetooth_rxtx.c **** 		 * @author: Ahmed Salem
1984:bluetooth_rxtx.c **** 		 * @Date: 4/5/2017
1985:bluetooth_rxtx.c **** 		 * Filter off all communication but the Master device whose mac address is (le.target)
1986:bluetooth_rxtx.c **** 		 * */
1987:bluetooth_rxtx.c **** 		if( le.target_set &&
1988:bluetooth_rxtx.c **** 			memcmp(le.target, &p[6], 6) != 0
1989:bluetooth_rxtx.c **** 		  ){
1990:bluetooth_rxtx.c **** 			goto rx_flush;
1991:bluetooth_rxtx.c **** 		}
1992:bluetooth_rxtx.c **** 
1993:bluetooth_rxtx.c **** 
1994:bluetooth_rxtx.c **** 		RXLED_SET;
1995:bluetooth_rxtx.c **** 		packet_cb((uint8_t *)packet);
1996:bluetooth_rxtx.c **** 
1997:bluetooth_rxtx.c **** 
1998:bluetooth_rxtx.c **** 		// disable USB interrupts while we touch USB data structures
1999:bluetooth_rxtx.c **** 		ICER0 = ICER0_ICE_USB;
2000:bluetooth_rxtx.c **** 		enqueue(LE_PACKET, (uint8_t *)packet);
2001:bluetooth_rxtx.c **** 		ISER0 = ISER0_ISE_USB;
2002:bluetooth_rxtx.c **** 
2003:bluetooth_rxtx.c **** 		le.last_packet = CLK100NS;
2004:bluetooth_rxtx.c **** 
2005:bluetooth_rxtx.c **** 	rx_flush:
2006:bluetooth_rxtx.c **** 		// this might happen twice, but it's safe to do so
2007:bluetooth_rxtx.c **** 		cc2400_strobe(SFSON);
2008:bluetooth_rxtx.c **** 
2009:bluetooth_rxtx.c **** 		// flush any excess bytes from the SSP's buffer
2010:bluetooth_rxtx.c **** 		DIO_SSP_DMACR &= ~SSPDMACR_RXDMAE;
ARM GAS  /var/folders/s6/4bph2j8d1nvcsgz5bgm0yhx00000gn/T//ccF5ee78.s 			page 49


2011:bluetooth_rxtx.c **** 		while (SSP1SR & SSPSR_RNE) {
2012:bluetooth_rxtx.c **** 			u8 tmp = (u8)DIO_SSP_DR;
2013:bluetooth_rxtx.c **** 		}
2014:bluetooth_rxtx.c **** 
2015:bluetooth_rxtx.c **** 		// timeout - FIXME this is an ugly hack
2016:bluetooth_rxtx.c **** 		u32 now = CLK100NS;
2017:bluetooth_rxtx.c **** 		if (now < le.last_packet)
2018:bluetooth_rxtx.c **** 			now += 3276800000; // handle rollover
2019:bluetooth_rxtx.c **** 		if  ( // timeout
2020:bluetooth_rxtx.c **** 			((le.link_state == LINK_CONNECTED || le.link_state == LINK_CONN_PENDING)
2021:bluetooth_rxtx.c **** 			&& (now - le.last_packet > 50000000))
2022:bluetooth_rxtx.c **** 			// jam finished
2023:bluetooth_rxtx.c **** 			|| (le_jam_count == 1)
2024:bluetooth_rxtx.c **** 			)
2025:bluetooth_rxtx.c **** 		{
2026:bluetooth_rxtx.c **** 			reset_le();
2027:bluetooth_rxtx.c **** 			le_jam_count = 0;
2028:bluetooth_rxtx.c **** 			TXLED_CLR;
2029:bluetooth_rxtx.c **** 
2030:bluetooth_rxtx.c **** 			if (jam_mode == JAM_ONCE) {
2031:bluetooth_rxtx.c **** 				jam_mode = JAM_NONE;
2032:bluetooth_rxtx.c **** 				requested_mode = MODE_IDLE;
2033:bluetooth_rxtx.c **** 				goto cleanup;
2034:bluetooth_rxtx.c **** 			}
2035:bluetooth_rxtx.c **** 
2036:bluetooth_rxtx.c **** 			// go back to promisc if the connection dies
2037:bluetooth_rxtx.c **** 			if (active_mode == MODE_BT_PROMISC_LE)
2038:bluetooth_rxtx.c **** 				goto cleanup;
2039:bluetooth_rxtx.c **** 
2040:bluetooth_rxtx.c **** 			le.link_state = LINK_LISTENING;
2041:bluetooth_rxtx.c **** 
2042:bluetooth_rxtx.c **** 			cc2400_strobe(SRFOFF);
2043:bluetooth_rxtx.c **** 			while ((cc2400_status() & FS_LOCK));
2044:bluetooth_rxtx.c **** 
2045:bluetooth_rxtx.c **** 			/* Retune */
2046:bluetooth_rxtx.c **** 			channel = le_adv_channel != 0 ? le_adv_channel : 2402;
2047:bluetooth_rxtx.c **** 			restart_jamming = 1;
2048:bluetooth_rxtx.c **** 		}
2049:bluetooth_rxtx.c **** 
2050:bluetooth_rxtx.c **** 		cc2400_set(SYNCL, le.syncl);
2051:bluetooth_rxtx.c **** 		cc2400_set(SYNCH, le.synch);
2052:bluetooth_rxtx.c **** 
2053:bluetooth_rxtx.c **** 		if (do_hop)
2054:bluetooth_rxtx.c **** 			hop();
2055:bluetooth_rxtx.c **** 
2056:bluetooth_rxtx.c **** 		//  you can jam but you keep turning off the light 
2057:bluetooth_rxtx.c **** 		if (le_jam_count > 0) {
2058:bluetooth_rxtx.c **** 			le_jam();
2059:bluetooth_rxtx.c **** 			--le_jam_count;
2060:bluetooth_rxtx.c **** 		} else {
2061:bluetooth_rxtx.c **** 			/* RX mode */
2062:bluetooth_rxtx.c **** 			dma_init_le();
2063:bluetooth_rxtx.c **** 			dio_ssp_start();
2064:bluetooth_rxtx.c **** 
2065:bluetooth_rxtx.c **** 			if (restart_jamming) {
2066:bluetooth_rxtx.c **** 				cc2400_rx_sync(rbit(le.access_address));
2067:bluetooth_rxtx.c **** 				restart_jamming = 0;
ARM GAS  /var/folders/s6/4bph2j8d1nvcsgz5bgm0yhx00000gn/T//ccF5ee78.s 			page 50


2068:bluetooth_rxtx.c **** 			} else {
2069:bluetooth_rxtx.c **** 				// wait till we're in FSLOCK before strobing RX
2070:bluetooth_rxtx.c **** 				while (!(cc2400_status() & FS_LOCK));
2071:bluetooth_rxtx.c **** 				cc2400_strobe(SRX);
2072:bluetooth_rxtx.c **** 			}
2073:bluetooth_rxtx.c **** 		}
2074:bluetooth_rxtx.c **** 
2075:bluetooth_rxtx.c **** 		rx_tc = 0;
2076:bluetooth_rxtx.c **** 		rx_err = 0;
2077:bluetooth_rxtx.c **** 	}
2078:bluetooth_rxtx.c **** 
2079:bluetooth_rxtx.c **** cleanup:
2080:bluetooth_rxtx.c **** 
2081:bluetooth_rxtx.c **** 	// disable USB interrupts
2082:bluetooth_rxtx.c **** 	ICER0 = ICER0_ICE_USB;
2083:bluetooth_rxtx.c **** 
2084:bluetooth_rxtx.c **** 	// reset the radio completely
2085:bluetooth_rxtx.c **** 	cc2400_idle();
2086:bluetooth_rxtx.c **** 	dio_ssp_stop();
2087:bluetooth_rxtx.c **** 	cs_trigger_disable();
2088:bluetooth_rxtx.c **** }
2089:bluetooth_rxtx.c **** 
2090:bluetooth_rxtx.c **** 
2091:bluetooth_rxtx.c **** 
2092:bluetooth_rxtx.c **** /* low energy connection following
2093:bluetooth_rxtx.c ****  * follows a known AA around */
2094:bluetooth_rxtx.c **** int cb_follow_le() {
 621              		.loc 1 2094 0
 622              		.cfi_startproc
 623              		@ args = 0, pretend = 0, frame = 0
 624              		@ frame_needed = 0, uses_anonymous_args = 0
 625 0000 2DE9F041 		push	{r4, r5, r6, r7, r8, lr}
 626              		.cfi_def_cfa_offset 24
 627              		.cfi_offset 4, -24
 628              		.cfi_offset 5, -20
 629              		.cfi_offset 6, -16
 630              		.cfi_offset 7, -12
 631              		.cfi_offset 8, -8
 632              		.cfi_offset 14, -4
2095:bluetooth_rxtx.c **** 	int i, j, k;
2096:bluetooth_rxtx.c **** 	int idx = whitening_index[btle_channel_index(channel-2402)];
 633              		.loc 1 2096 0
 634 0004 394D     		ldr	r5, .L65
 635 0006 3A4F     		ldr	r7, .L65+4
 636 0008 2888     		ldrh	r0, [r5]
 637 000a 6238     		subs	r0, r0, #98
 638 000c C0B2     		uxtb	r0, r0
 639 000e FFF7FEFF 		bl	btle_channel_index
 640              	.LVL56:
2097:bluetooth_rxtx.c **** 
2098:bluetooth_rxtx.c **** 	u32 access_address = 0;
 641              		.loc 1 2098 0
 642 0012 0022     		movs	r2, #0
2099:bluetooth_rxtx.c **** 	for (i = 0; i < 31; ++i) {
 643              		.loc 1 2099 0
 644 0014 1346     		mov	r3, r2
2096:bluetooth_rxtx.c **** 
ARM GAS  /var/folders/s6/4bph2j8d1nvcsgz5bgm0yhx00000gn/T//ccF5ee78.s 			page 51


 645              		.loc 1 2096 0
 646 0016 395C     		ldrb	r1, [r7, r0]	@ zero_extendqisi2
 647              	.LVL57:
 648              	.L50:
2100:bluetooth_rxtx.c **** 		access_address >>= 1;
2101:bluetooth_rxtx.c **** 		access_address |= (unpacked[i] << 31);
 649              		.loc 1 2101 0 discriminator 3
 650 0018 364E     		ldr	r6, .L65+8
 651 001a 985D     		ldrb	r0, [r3, r6]	@ zero_extendqisi2
2099:bluetooth_rxtx.c **** 		access_address >>= 1;
 652              		.loc 1 2099 0 discriminator 3
 653 001c 0133     		adds	r3, r3, #1
 654              	.LVL58:
 655              		.loc 1 2101 0 discriminator 3
 656 001e C007     		lsls	r0, r0, #31
2099:bluetooth_rxtx.c **** 		access_address >>= 1;
 657              		.loc 1 2099 0 discriminator 3
 658 0020 1F2B     		cmp	r3, #31
 659              		.loc 1 2101 0 discriminator 3
 660 0022 40EA5202 		orr	r2, r0, r2, lsr #1
 661              	.LVL59:
2099:bluetooth_rxtx.c **** 		access_address >>= 1;
 662              		.loc 1 2099 0 discriminator 3
 663 0026 F7D1     		bne	.L50
2102:bluetooth_rxtx.c **** 	}
2103:bluetooth_rxtx.c **** 
2104:bluetooth_rxtx.c **** 	for (i = 31; i < DMA_SIZE * 8 + 32; i++) {
2105:bluetooth_rxtx.c **** 		access_address >>= 1;
2106:bluetooth_rxtx.c **** 		access_address |= (unpacked[i] << 31);
2107:bluetooth_rxtx.c **** 		if (access_address == le.access_address) {
 664              		.loc 1 2107 0
 665 0028 6C68     		ldr	r4, [r5, #4]
 666              	.L60:
 667              	.LVL60:
2106:bluetooth_rxtx.c **** 		if (access_address == le.access_address) {
 668              		.loc 1 2106 0
 669 002a F05C     		ldrb	r0, [r6, r3]	@ zero_extendqisi2
 670 002c C007     		lsls	r0, r0, #31
 671 002e 40EA5202 		orr	r2, r0, r2, lsr #1
 672              	.LVL61:
 673              		.loc 1 2107 0
 674 0032 A242     		cmp	r2, r4
 675 0034 53D1     		bne	.L51
 676              	.LVL62:
 677 0036 0020     		movs	r0, #0
 678              	.LVL63:
 679              	.L52:
2099:bluetooth_rxtx.c **** 		access_address >>= 1;
 680              		.loc 1 2099 0
 681 0038 4FF00008 		mov	r8, #0
 682 003c C646     		mov	lr, r8
 683 003e 03EBC00C 		add	ip, r3, r0, lsl #3
 684              	.LVL64:
 685              	.L55:
 686 0042 0EEB0C02 		add	r2, lr, ip
 687 0046 3244     		add	r2, r2, r6
 688              	.LBB6:
ARM GAS  /var/folders/s6/4bph2j8d1nvcsgz5bgm0yhx00000gn/T//ccF5ee78.s 			page 52


 689              	.LBB7:
2108:bluetooth_rxtx.c **** 			for (j = 0; j < 46; ++j) {
2109:bluetooth_rxtx.c **** 				u8 byte = 0;
2110:bluetooth_rxtx.c **** 				for (k = 0; k < 8; k++) {
2111:bluetooth_rxtx.c **** 					int offset = k + (j * 8) + i - 31;
2112:bluetooth_rxtx.c **** 					if (offset >= DMA_SIZE*8*2) break;
2113:bluetooth_rxtx.c **** 					int bit = unpacked[offset];
2114:bluetooth_rxtx.c **** 					if (j >= 4) { // unwhiten data bytes
 690              		.loc 1 2114 0
 691 0048 0328     		cmp	r0, #3
2113:bluetooth_rxtx.c **** 					if (j >= 4) { // unwhiten data bytes
 692              		.loc 1 2113 0
 693 004a 12F81F2C 		ldrb	r2, [r2, #-31]	@ zero_extendqisi2
 694              	.LVL65:
 695              		.loc 1 2114 0
 696 004e 0ADD     		ble	.L54
2115:bluetooth_rxtx.c **** 						bit ^= whitening[idx];
 697              		.loc 1 2115 0
 698 0050 7C18     		adds	r4, r7, r1
 699 0052 94F82840 		ldrb	r4, [r4, #40]	@ zero_extendqisi2
2116:bluetooth_rxtx.c **** 						idx = (idx + 1) % sizeof(whitening);
 700              		.loc 1 2116 0
 701 0056 0131     		adds	r1, r1, #1
 702              	.LVL66:
2115:bluetooth_rxtx.c **** 						bit ^= whitening[idx];
 703              		.loc 1 2115 0
 704 0058 6240     		eors	r2, r2, r4
 705              	.LVL67:
 706              		.loc 1 2116 0
 707 005a 7F24     		movs	r4, #127
 708 005c B1FBF4F4 		udiv	r4, r1, r4
 709 0060 C4EBC414 		rsb	r4, r4, r4, lsl #7
 710 0064 091B     		subs	r1, r1, r4
 711              	.LVL68:
 712              	.L54:
2117:bluetooth_rxtx.c **** 					}
2118:bluetooth_rxtx.c **** 					byte |= bit << k;
 713              		.loc 1 2118 0 discriminator 2
 714 0066 02FA0EF2 		lsl	r2, r2, lr
 715              	.LVL69:
 716              	.LBE7:
2110:bluetooth_rxtx.c **** 					int offset = k + (j * 8) + i - 31;
 717              		.loc 1 2110 0 discriminator 2
 718 006a 0EF1010E 		add	lr, lr, #1
 719              	.LVL70:
 720              	.LBB8:
 721              		.loc 1 2118 0 discriminator 2
 722 006e 42EA0802 		orr	r2, r2, r8
 723              	.LBE8:
2110:bluetooth_rxtx.c **** 					int offset = k + (j * 8) + i - 31;
 724              		.loc 1 2110 0 discriminator 2
 725 0072 BEF1080F 		cmp	lr, #8
 726              	.LBB9:
 727              		.loc 1 2118 0 discriminator 2
 728 0076 5FFA82F8 		uxtb	r8, r2
 729              	.LVL71:
 730              	.LBE9:
ARM GAS  /var/folders/s6/4bph2j8d1nvcsgz5bgm0yhx00000gn/T//ccF5ee78.s 			page 53


2110:bluetooth_rxtx.c **** 					int offset = k + (j * 8) + i - 31;
 731              		.loc 1 2110 0 discriminator 2
 732 007a E2D1     		bne	.L55
2119:bluetooth_rxtx.c **** 				}
2120:bluetooth_rxtx.c **** 				idle_rxbuf[j] = byte;
 733              		.loc 1 2120 0
 734 007c 1E4C     		ldr	r4, .L65+12
 735 007e 2268     		ldr	r2, [r4]
 736 0080 02F80080 		strb	r8, [r2, r0]
 737              	.LBE6:
2108:bluetooth_rxtx.c **** 				u8 byte = 0;
 738              		.loc 1 2108 0
 739 0084 0130     		adds	r0, r0, #1
 740              	.LVL72:
 741 0086 2E28     		cmp	r0, #46
 742 0088 D6D1     		bne	.L52
2121:bluetooth_rxtx.c **** 			}
2122:bluetooth_rxtx.c **** 
2123:bluetooth_rxtx.c **** 			// verify CRC
2124:bluetooth_rxtx.c **** 			if (le.crc_verify) {
 743              		.loc 1 2124 0
 744 008a 6B69     		ldr	r3, [r5, #20]
 745              	.LVL73:
 746 008c 5BB9     		cbnz	r3, .L57
 747              	.LVL74:
 748              	.L59:
2125:bluetooth_rxtx.c **** 				int len		 = (idle_rxbuf[5] & 0x3f) + 2;
2126:bluetooth_rxtx.c **** 				u32 calc_crc = btle_crcgen_lut(le.crc_init_reversed, (uint8_t*)idle_rxbuf + 4, len);
2127:bluetooth_rxtx.c **** 				u32 wire_crc = (idle_rxbuf[4+len+2] << 16)
2128:bluetooth_rxtx.c **** 							 | (idle_rxbuf[4+len+1] << 8)
2129:bluetooth_rxtx.c **** 							 |  idle_rxbuf[4+len+0];
2130:bluetooth_rxtx.c **** 				if (calc_crc != wire_crc) // skip packets with a bad CRC
2131:bluetooth_rxtx.c **** 					break;
2132:bluetooth_rxtx.c **** 			}
2133:bluetooth_rxtx.c **** 
2134:bluetooth_rxtx.c **** 			// send to PC
2135:bluetooth_rxtx.c **** 			enqueue(LE_PACKET, (uint8_t*)idle_rxbuf);
 749              		.loc 1 2135 0
 750 008e 2168     		ldr	r1, [r4]
 751 0090 0120     		movs	r0, #1
 752 0092 FFF7FEFF 		bl	enqueue
 753              	.LVL75:
2136:bluetooth_rxtx.c **** 			RXLED_SET;
 754              		.loc 1 2136 0
 755 0096 194B     		ldr	r3, .L65+16
 756 0098 1022     		movs	r2, #16
 757 009a 1A60     		str	r2, [r3]
2137:bluetooth_rxtx.c **** 
2138:bluetooth_rxtx.c **** 			packet_cb((uint8_t*)idle_rxbuf);
 758              		.loc 1 2138 0
 759 009c 184B     		ldr	r3, .L65+20
 760 009e 2068     		ldr	r0, [r4]
 761 00a0 9B69     		ldr	r3, [r3, #24]
 762 00a2 9847     		blx	r3
 763              	.LVL76:
2139:bluetooth_rxtx.c **** 
2140:bluetooth_rxtx.c **** 			break;
ARM GAS  /var/folders/s6/4bph2j8d1nvcsgz5bgm0yhx00000gn/T//ccF5ee78.s 			page 54


 764              		.loc 1 2140 0
 765 00a4 1FE0     		b	.L58
 766              	.LVL77:
 767              	.L57:
 768              	.LBB10:
2125:bluetooth_rxtx.c **** 				u32 calc_crc = btle_crcgen_lut(le.crc_init_reversed, (uint8_t*)idle_rxbuf + 4, len);
 769              		.loc 1 2125 0
 770 00a6 2368     		ldr	r3, [r4]
 771 00a8 5D79     		ldrb	r5, [r3, #5]	@ zero_extendqisi2
2126:bluetooth_rxtx.c **** 				u32 wire_crc = (idle_rxbuf[4+len+2] << 16)
 772              		.loc 1 2126 0
 773 00aa 104B     		ldr	r3, .L65
 774 00ac 2168     		ldr	r1, [r4]
 775              	.LVL78:
2125:bluetooth_rxtx.c **** 				u32 calc_crc = btle_crcgen_lut(le.crc_init_reversed, (uint8_t*)idle_rxbuf + 4, len);
 776              		.loc 1 2125 0
 777 00ae 05F03F05 		and	r5, r5, #63
 778              	.LVL79:
2126:bluetooth_rxtx.c **** 				u32 wire_crc = (idle_rxbuf[4+len+2] << 16)
 779              		.loc 1 2126 0
 780 00b2 AA1C     		adds	r2, r5, #2
 781              	.LVL80:
 782 00b4 1869     		ldr	r0, [r3, #16]
 783              	.LVL81:
 784 00b6 0431     		adds	r1, r1, #4
 785 00b8 FFF7FEFF 		bl	btle_crcgen_lut
 786              	.LVL82:
2127:bluetooth_rxtx.c **** 							 | (idle_rxbuf[4+len+1] << 8)
 787              		.loc 1 2127 0
 788 00bc 2268     		ldr	r2, [r4]
 789 00be 05F10803 		add	r3, r5, #8
 790 00c2 D35C     		ldrb	r3, [r2, r3]	@ zero_extendqisi2
2128:bluetooth_rxtx.c **** 							 |  idle_rxbuf[4+len+0];
 791              		.loc 1 2128 0
 792 00c4 2168     		ldr	r1, [r4]
 793 00c6 EA1D     		adds	r2, r5, #7
 794 00c8 8A5C     		ldrb	r2, [r1, r2]	@ zero_extendqisi2
2129:bluetooth_rxtx.c **** 				if (calc_crc != wire_crc) // skip packets with a bad CRC
 795              		.loc 1 2129 0
 796 00ca 2168     		ldr	r1, [r4]
 797 00cc 0635     		adds	r5, r5, #6
 798              	.LVL83:
 799 00ce 495D     		ldrb	r1, [r1, r5]	@ zero_extendqisi2
 800              	.LVL84:
2128:bluetooth_rxtx.c **** 							 |  idle_rxbuf[4+len+0];
 801              		.loc 1 2128 0
 802 00d0 1202     		lsls	r2, r2, #8
 803              	.LVL85:
 804 00d2 42EA0343 		orr	r3, r2, r3, lsl #16
2129:bluetooth_rxtx.c **** 				if (calc_crc != wire_crc) // skip packets with a bad CRC
 805              		.loc 1 2129 0
 806 00d6 0B43     		orrs	r3, r3, r1
2130:bluetooth_rxtx.c **** 					break;
 807              		.loc 1 2130 0
 808 00d8 9842     		cmp	r0, r3
 809 00da 04D1     		bne	.L58
 810 00dc D7E7     		b	.L59
ARM GAS  /var/folders/s6/4bph2j8d1nvcsgz5bgm0yhx00000gn/T//ccF5ee78.s 			page 55


 811              	.LVL86:
 812              	.L51:
 813              	.LBE10:
2104:bluetooth_rxtx.c **** 		access_address >>= 1;
 814              		.loc 1 2104 0 discriminator 2
 815 00de 0133     		adds	r3, r3, #1
 816              	.LVL87:
 817 00e0 B3F5D87F 		cmp	r3, #432
 818 00e4 A1D1     		bne	.L60
 819              	.LVL88:
 820              	.L58:
2141:bluetooth_rxtx.c **** 		}
2142:bluetooth_rxtx.c **** 	}
2143:bluetooth_rxtx.c **** 
2144:bluetooth_rxtx.c **** 	return 1;
2145:bluetooth_rxtx.c **** }
 821              		.loc 1 2145 0
 822 00e6 0120     		movs	r0, #1
 823 00e8 BDE8F081 		pop	{r4, r5, r6, r7, r8, pc}
 824              	.L66:
 825              		.align	2
 826              	.L65:
 827 00ec 00000000 		.word	.LANCHOR1
 828 00f0 00000000 		.word	.LANCHOR2
 829 00f4 00000000 		.word	unpacked
 830 00f8 00000000 		.word	idle_rxbuf
 831 00fc 38C00920 		.word	537509944
 832 0100 00000000 		.word	.LANCHOR0
 833              		.cfi_endproc
 834              	.LFE24:
 836              		.section	.text.connection_follow_cb_boss_master,"ax",%progbits
 837              		.align	1
 838              		.global	connection_follow_cb_boss_master
 839              		.thumb
 840              		.thumb_func
 842              	connection_follow_cb_boss_master:
 843              	.LFB25:
2146:bluetooth_rxtx.c **** 
2147:bluetooth_rxtx.c **** 
2148:bluetooth_rxtx.c **** /**
2149:bluetooth_rxtx.c ****  * Called when we receive a packet in connection following mode.
2150:bluetooth_rxtx.c ****  */
2151:bluetooth_rxtx.c **** void connection_follow_cb_boss_master(u8 *packet) {
 844              		.loc 1 2151 0
 845              		.cfi_startproc
 846              		@ args = 0, pretend = 0, frame = 0
 847              		@ frame_needed = 0, uses_anonymous_args = 0
 848              	.LVL89:
 849 0000 70B5     		push	{r4, r5, r6, lr}
 850              		.cfi_def_cfa_offset 16
 851              		.cfi_offset 4, -16
 852              		.cfi_offset 5, -12
 853              		.cfi_offset 6, -8
 854              		.cfi_offset 14, -4
 855              	.LVL90:
2152:bluetooth_rxtx.c **** 	int i;
2153:bluetooth_rxtx.c **** 	u32 aa = 0;
ARM GAS  /var/folders/s6/4bph2j8d1nvcsgz5bgm0yhx00000gn/T//ccF5ee78.s 			page 56


2154:bluetooth_rxtx.c **** 
2155:bluetooth_rxtx.c **** #define ADV_ADDRESS_IDX 0
2156:bluetooth_rxtx.c **** #define HEADER_IDX 4
2157:bluetooth_rxtx.c **** #define DATA_LEN_IDX 5
2158:bluetooth_rxtx.c **** #define DATA_START_IDX 6
2159:bluetooth_rxtx.c **** 
2160:bluetooth_rxtx.c **** 	// u8 *adv_addr = &packet[ADV_ADDRESS_IDX];
2161:bluetooth_rxtx.c **** 	u8 header = packet[HEADER_IDX];
2162:bluetooth_rxtx.c **** 	u8 *data_len = &packet[DATA_LEN_IDX];
2163:bluetooth_rxtx.c **** 	u8 *data = &packet[DATA_START_IDX];
2164:bluetooth_rxtx.c **** 	// u8 *crc = &packet[DATA_START_IDX + *data_len];
2165:bluetooth_rxtx.c **** 
2166:bluetooth_rxtx.c **** 	if (le.link_state == LINK_CONN_PENDING) {
 856              		.loc 1 2166 0
 857 0002 594B     		ldr	r3, .L84
2151:bluetooth_rxtx.c **** 	int i;
 858              		.loc 1 2151 0
 859 0004 0546     		mov	r5, r0
 860              		.loc 1 2166 0
 861 0006 197E     		ldrb	r1, [r3, #24]	@ zero_extendqisi2
2161:bluetooth_rxtx.c **** 	u8 *data_len = &packet[DATA_LEN_IDX];
 862              		.loc 1 2161 0
 863 0008 0279     		ldrb	r2, [r0, #4]	@ zero_extendqisi2
 864              	.LVL91:
 865              		.loc 1 2166 0
 866 000a 0229     		cmp	r1, #2
 867 000c 1C46     		mov	r4, r3
 868 000e 13D1     		bne	.L68
2167:bluetooth_rxtx.c **** 		// We received a packet in the connection pending state, so now the device *should* be connected
2168:bluetooth_rxtx.c **** 		le.link_state = LINK_CONNECTED;
 869              		.loc 1 2168 0
 870 0010 0322     		movs	r2, #3
 871              	.LVL92:
 872 0012 1A76     		strb	r2, [r3, #24]
 873              	.LVL93:
2169:bluetooth_rxtx.c **** 		le.conn_epoch = clkn;
 874              		.loc 1 2169 0
 875 0014 554A     		ldr	r2, .L84+4
 876 0016 1268     		ldr	r2, [r2]
 877 0018 DA61     		str	r2, [r3, #28]
2170:bluetooth_rxtx.c **** 		le.interval_timer = le.conn_interval - 1;
 878              		.loc 1 2170 0
 879 001a 5A8C     		ldrh	r2, [r3, #34]
 880 001c 013A     		subs	r2, r2, #1
 881 001e 92B2     		uxth	r2, r2
 882 0020 1A84     		strh	r2, [r3, #32]	@ movhi
2171:bluetooth_rxtx.c **** 		le.conn_count = 0;
 883              		.loc 1 2171 0
 884 0022 0022     		movs	r2, #0
 885 0024 9A84     		strh	r2, [r3, #36]	@ movhi
2172:bluetooth_rxtx.c **** 		le.update_pending = 0;
 886              		.loc 1 2172 0
 887 0026 DA62     		str	r2, [r3, #44]
2173:bluetooth_rxtx.c **** 
2174:bluetooth_rxtx.c **** 		// hue hue hue
2175:bluetooth_rxtx.c **** 		if (jam_mode != JAM_NONE)
 888              		.loc 1 2175 0
ARM GAS  /var/folders/s6/4bph2j8d1nvcsgz5bgm0yhx00000gn/T//ccF5ee78.s 			page 57


 889 0028 514B     		ldr	r3, .L84+8
 890 002a DA7C     		ldrb	r2, [r3, #19]	@ zero_extendqisi2
 891 002c 002A     		cmp	r2, #0
 892 002e 00F09980 		beq	.L67
2176:bluetooth_rxtx.c **** 			le_jam_count = JAM_COUNT_DEFAULT;
 893              		.loc 1 2176 0
 894 0032 2822     		movs	r2, #40
 895 0034 DA61     		str	r2, [r3, #28]
 896 0036 70BD     		pop	{r4, r5, r6, pc}
 897              	.LVL94:
 898              	.L68:
2177:bluetooth_rxtx.c **** 
2178:bluetooth_rxtx.c **** 	} else if (le.link_state == LINK_CONNECTED) {
 899              		.loc 1 2178 0
 900 0038 0329     		cmp	r1, #3
 901 003a 3BD1     		bne	.L71
 902              	.LBB11:
2179:bluetooth_rxtx.c **** 		u8 llid =  header & 0x03;
2180:bluetooth_rxtx.c **** 
2181:bluetooth_rxtx.c **** 		// Apply any connection parameter update if necessary
2182:bluetooth_rxtx.c **** 		if (le.update_pending && le.conn_count == le.update_instant) {
 903              		.loc 1 2182 0
 904 003c DB6A     		ldr	r3, [r3, #44]
2179:bluetooth_rxtx.c **** 		u8 llid =  header & 0x03;
 905              		.loc 1 2179 0
 906 003e 02F00302 		and	r2, r2, #3
 907              	.LVL95:
 908              		.loc 1 2182 0
 909 0042 A3B1     		cbz	r3, .L72
 910              		.loc 1 2182 0 is_stmt 0 discriminator 1
 911 0044 A38C     		ldrh	r3, [r4, #36]
 912 0046 218E     		ldrh	r1, [r4, #48]
 913 0048 9BB2     		uxth	r3, r3
 914 004a 9942     		cmp	r1, r3
 915 004c 0FD1     		bne	.L72
2183:bluetooth_rxtx.c **** 			// This is the first packet received in the connection interval for which the new parameters app
2184:bluetooth_rxtx.c **** 			le.conn_epoch = clkn;
 916              		.loc 1 2184 0 is_stmt 1
 917 004e 474B     		ldr	r3, .L84+4
 918 0050 1B68     		ldr	r3, [r3]
 919 0052 E361     		str	r3, [r4, #28]
 920              	.LVL96:
2185:bluetooth_rxtx.c **** 			le.conn_interval = le.interval_update;
 921              		.loc 1 2185 0
 922 0054 638E     		ldrh	r3, [r4, #50]
 923 0056 6384     		strh	r3, [r4, #34]	@ movhi
2186:bluetooth_rxtx.c **** 			le.interval_timer = le.interval_update - 1;
 924              		.loc 1 2186 0
 925 0058 013B     		subs	r3, r3, #1
 926 005a 9BB2     		uxth	r3, r3
 927 005c 2384     		strh	r3, [r4, #32]	@ movhi
2187:bluetooth_rxtx.c **** 			le.win_size = le.win_size_update;
 928              		.loc 1 2187 0
 929 005e 94F83430 		ldrb	r3, [r4, #52]	@ zero_extendqisi2
 930 0062 84F82630 		strb	r3, [r4, #38]
2188:bluetooth_rxtx.c **** 			le.win_offset = le.win_offset_update;
 931              		.loc 1 2188 0
ARM GAS  /var/folders/s6/4bph2j8d1nvcsgz5bgm0yhx00000gn/T//ccF5ee78.s 			page 58


 932 0066 E38E     		ldrh	r3, [r4, #54]
 933 0068 2385     		strh	r3, [r4, #40]	@ movhi
2189:bluetooth_rxtx.c **** 			le.update_pending = 0;
 934              		.loc 1 2189 0
 935 006a 0023     		movs	r3, #0
 936 006c E362     		str	r3, [r4, #44]
 937              	.L72:
2190:bluetooth_rxtx.c **** 		}
2191:bluetooth_rxtx.c **** 
2192:bluetooth_rxtx.c **** 		if (llid == 0x03 && data[0] == 0x00) {
 938              		.loc 1 2192 0
 939 006e 032A     		cmp	r2, #3
 940 0070 78D1     		bne	.L67
 941              		.loc 1 2192 0 is_stmt 0 discriminator 1
 942 0072 AB79     		ldrb	r3, [r5, #6]	@ zero_extendqisi2
 943 0074 002B     		cmp	r3, #0
 944 0076 75D1     		bne	.L67
2193:bluetooth_rxtx.c **** 			// This is a CONNECTION_UPDATE_REQ.
2194:bluetooth_rxtx.c **** 			// The host is changing the connection parameters.
2195:bluetooth_rxtx.c **** 			le.win_size_update = packet[7];
 945              		.loc 1 2195 0 is_stmt 1
 946 0078 EB79     		ldrb	r3, [r5, #7]	@ zero_extendqisi2
 947 007a 84F83430 		strb	r3, [r4, #52]
2196:bluetooth_rxtx.c **** 			le.win_offset_update = packet[8] + ((u16)packet[9] << 8);
 948              		.loc 1 2196 0
 949 007e 6A7A     		ldrb	r2, [r5, #9]	@ zero_extendqisi2
 950              	.LVL97:
 951 0080 2B7A     		ldrb	r3, [r5, #8]	@ zero_extendqisi2
 952 0082 03EB0223 		add	r3, r3, r2, lsl #8
 953 0086 E386     		strh	r3, [r4, #54]	@ movhi
2197:bluetooth_rxtx.c **** 			le.interval_update = packet[10] + ((u16)packet[11] << 8);
 954              		.loc 1 2197 0
 955 0088 EA7A     		ldrb	r2, [r5, #11]	@ zero_extendqisi2
 956 008a AB7A     		ldrb	r3, [r5, #10]	@ zero_extendqisi2
 957 008c 03EB0223 		add	r3, r3, r2, lsl #8
 958 0090 6386     		strh	r3, [r4, #50]	@ movhi
2198:bluetooth_rxtx.c **** 			le.update_instant = packet[16] + ((u16)packet[17] << 8);
 959              		.loc 1 2198 0
 960 0092 6A7C     		ldrb	r2, [r5, #17]	@ zero_extendqisi2
 961 0094 2B7C     		ldrb	r3, [r5, #16]	@ zero_extendqisi2
 962 0096 03EB0223 		add	r3, r3, r2, lsl #8
2199:bluetooth_rxtx.c **** 			if (le.update_instant - le.conn_count < 32767)
 963              		.loc 1 2199 0
 964 009a A28C     		ldrh	r2, [r4, #36]
2198:bluetooth_rxtx.c **** 			le.update_instant = packet[16] + ((u16)packet[17] << 8);
 965              		.loc 1 2198 0
 966 009c 9BB2     		uxth	r3, r3
 967              		.loc 1 2199 0
 968 009e 92B2     		uxth	r2, r2
2198:bluetooth_rxtx.c **** 			le.update_instant = packet[16] + ((u16)packet[17] << 8);
 969              		.loc 1 2198 0
 970 00a0 2386     		strh	r3, [r4, #48]	@ movhi
 971              		.loc 1 2199 0
 972 00a2 9B1A     		subs	r3, r3, r2
 973 00a4 47F6FE72 		movw	r2, #32766
 974 00a8 9342     		cmp	r3, r2
 975 00aa 5BDC     		bgt	.L67
ARM GAS  /var/folders/s6/4bph2j8d1nvcsgz5bgm0yhx00000gn/T//ccF5ee78.s 			page 59


2200:bluetooth_rxtx.c **** 				le.update_pending = 1;
 976              		.loc 1 2200 0
 977 00ac 2E4B     		ldr	r3, .L84
 978 00ae 0122     		movs	r2, #1
 979 00b0 DA62     		str	r2, [r3, #44]
 980 00b2 70BD     		pop	{r4, r5, r6, pc}
 981              	.LVL98:
 982              	.L71:
 983              	.LBE11:
2201:bluetooth_rxtx.c **** 		}
2202:bluetooth_rxtx.c **** 
2203:bluetooth_rxtx.c **** 	} else if (le.link_state == LINK_LISTENING) {
 984              		.loc 1 2203 0
 985 00b4 0129     		cmp	r1, #1
 986 00b6 55D1     		bne	.L67
 987              	.LVL99:
 988              	.LBB12:
2204:bluetooth_rxtx.c **** 		u8 pkt_type = packet[4] & 0x0F;
2205:bluetooth_rxtx.c **** 		if (pkt_type == 0x05) {
 989              		.loc 1 2205 0
 990 00b8 02F00F02 		and	r2, r2, #15
 991              	.LVL100:
 992 00bc 052A     		cmp	r2, #5
 993 00be 51D1     		bne	.L67
 994              	.LBB13:
2206:bluetooth_rxtx.c **** 			uint16_t conn_interval;
2207:bluetooth_rxtx.c **** 
2208:bluetooth_rxtx.c **** 			// ignore packets with incorrect length
2209:bluetooth_rxtx.c **** 			if (*data_len != 34)
 995              		.loc 1 2209 0
 996 00c0 4379     		ldrb	r3, [r0, #5]	@ zero_extendqisi2
 997 00c2 222B     		cmp	r3, #34
 998 00c4 4ED1     		bne	.L67
 999              	.LVL101:
2210:bluetooth_rxtx.c **** 				return;
2211:bluetooth_rxtx.c **** 
2212:bluetooth_rxtx.c **** 			// conn interval must be [7.5 ms, 4.0s] in units of 1.25 ms
2213:bluetooth_rxtx.c **** 			conn_interval = (packet[29] << 8) | packet[28];
 1000              		.loc 1 2213 0
 1001 00c6 427F     		ldrb	r2, [r0, #29]	@ zero_extendqisi2
 1002 00c8 037F     		ldrb	r3, [r0, #28]	@ zero_extendqisi2
 1003 00ca 43EA0223 		orr	r3, r3, r2, lsl #8
2214:bluetooth_rxtx.c **** 			if (conn_interval < 6 || conn_interval > 3200)
 1004              		.loc 1 2214 0
 1005 00ce 40F67A42 		movw	r2, #3194
 1006 00d2 063B     		subs	r3, r3, #6
 1007 00d4 9BB2     		uxth	r3, r3
 1008 00d6 9342     		cmp	r3, r2
 1009 00d8 44D8     		bhi	.L67
2215:bluetooth_rxtx.c **** 				return;
2216:bluetooth_rxtx.c **** 
2217:bluetooth_rxtx.c **** 			// This is a connect packet
2218:bluetooth_rxtx.c **** 			// if we have a target, see if InitA or AdvA matches
2219:bluetooth_rxtx.c **** 			if (le.target_set &&
 1010              		.loc 1 2219 0
 1011 00da 236C     		ldr	r3, [r4, #64]
 1012 00dc 3BB9     		cbnz	r3, .L74
ARM GAS  /var/folders/s6/4bph2j8d1nvcsgz5bgm0yhx00000gn/T//ccF5ee78.s 			page 60


 1013              	.LVL102:
 1014              	.L76:
2220:bluetooth_rxtx.c **** 				memcmp(le.target, &packet[6], 6) &&  // Target address doesn't match Initiator.
2221:bluetooth_rxtx.c **** 				memcmp(le.target, &packet[12], 6)) {  // Target address doesn't match Advertiser.
2222:bluetooth_rxtx.c **** 				return;
2223:bluetooth_rxtx.c **** 			}
2224:bluetooth_rxtx.c **** 
2225:bluetooth_rxtx.c **** 			le.link_state = LINK_CONN_PENDING;
 1015              		.loc 1 2225 0
 1016 00de 0223     		movs	r3, #2
2226:bluetooth_rxtx.c **** 			le.crc_verify = 0; // we will drop many packets if we attempt to filter by CRC
 1017              		.loc 1 2226 0
 1018 00e0 0020     		movs	r0, #0
2225:bluetooth_rxtx.c **** 			le.crc_verify = 0; // we will drop many packets if we attempt to filter by CRC
 1019              		.loc 1 2225 0
 1020 00e2 2376     		strb	r3, [r4, #24]
 1021              		.loc 1 2226 0
 1022 00e4 6061     		str	r0, [r4, #20]
 1023              	.LVL103:
 1024 00e6 05F11101 		add	r1, r5, #17
2227:bluetooth_rxtx.c **** 
2228:bluetooth_rxtx.c **** 			for (i = 0; i < 4; ++i)
 1025              		.loc 1 2228 0
 1026 00ea 0346     		mov	r3, r0
 1027 00ec 11E0     		b	.L75
 1028              	.LVL104:
 1029              	.L74:
2220:bluetooth_rxtx.c **** 				memcmp(le.target, &packet[12], 6)) {  // Target address doesn't match Advertiser.
 1030              		.loc 1 2220 0 discriminator 1
 1031 00ee 04F13800 		add	r0, r4, #56
 1032              	.LVL105:
 1033 00f2 A91D     		adds	r1, r5, #6
 1034 00f4 0622     		movs	r2, #6
 1035 00f6 FFF7FEFF 		bl	memcmp
 1036              	.LVL106:
2219:bluetooth_rxtx.c **** 				memcmp(le.target, &packet[6], 6) &&  // Target address doesn't match Initiator.
 1037              		.loc 1 2219 0 discriminator 1
 1038 00fa 0028     		cmp	r0, #0
 1039 00fc EFD0     		beq	.L76
2221:bluetooth_rxtx.c **** 				return;
 1040              		.loc 1 2221 0
 1041 00fe 04F13800 		add	r0, r4, #56
 1042 0102 05F10C01 		add	r1, r5, #12
 1043 0106 0622     		movs	r2, #6
 1044 0108 FFF7FEFF 		bl	memcmp
 1045              	.LVL107:
2220:bluetooth_rxtx.c **** 				memcmp(le.target, &packet[12], 6)) {  // Target address doesn't match Advertiser.
 1046              		.loc 1 2220 0
 1047 010c 0028     		cmp	r0, #0
 1048 010e E6D0     		beq	.L76
 1049 0110 70BD     		pop	{r4, r5, r6, pc}
 1050              	.LVL108:
 1051              	.L75:
2229:bluetooth_rxtx.c **** 				aa |= packet[18+i] << (i*8);
 1052              		.loc 1 2229 0 discriminator 3
 1053 0112 11F8012F 		ldrb	r2, [r1, #1]!	@ zero_extendqisi2
 1054 0116 DE00     		lsls	r6, r3, #3
ARM GAS  /var/folders/s6/4bph2j8d1nvcsgz5bgm0yhx00000gn/T//ccF5ee78.s 			page 61


2228:bluetooth_rxtx.c **** 				aa |= packet[18+i] << (i*8);
 1055              		.loc 1 2228 0 discriminator 3
 1056 0118 0133     		adds	r3, r3, #1
 1057              	.LVL109:
 1058              		.loc 1 2229 0 discriminator 3
 1059 011a B240     		lsls	r2, r2, r6
2228:bluetooth_rxtx.c **** 				aa |= packet[18+i] << (i*8);
 1060              		.loc 1 2228 0 discriminator 3
 1061 011c 042B     		cmp	r3, #4
 1062              		.loc 1 2229 0 discriminator 3
 1063 011e 40EA0200 		orr	r0, r0, r2
 1064              	.LVL110:
2228:bluetooth_rxtx.c **** 				aa |= packet[18+i] << (i*8);
 1065              		.loc 1 2228 0 discriminator 3
 1066 0122 F6D1     		bne	.L75
2230:bluetooth_rxtx.c **** 			le_set_access_address(aa);
 1067              		.loc 1 2230 0
 1068 0124 FFF7FEFF 		bl	le_set_access_address
 1069              	.LVL111:
2231:bluetooth_rxtx.c **** 
2232:bluetooth_rxtx.c **** #define CRC_INIT (2+4+6+6+4)
2233:bluetooth_rxtx.c **** 			le.crc_init = (packet[CRC_INIT+2] << 16)
2234:bluetooth_rxtx.c **** 						| (packet[CRC_INIT+1] << 8)
 1070              		.loc 1 2234 0
 1071 0128 EB7D     		ldrb	r3, [r5, #23]	@ zero_extendqisi2
2233:bluetooth_rxtx.c **** 						| (packet[CRC_INIT+1] << 8)
 1072              		.loc 1 2233 0
 1073 012a 287E     		ldrb	r0, [r5, #24]	@ zero_extendqisi2
 1074              		.loc 1 2234 0
 1075 012c 1B02     		lsls	r3, r3, #8
 1076 012e 43EA0043 		orr	r3, r3, r0, lsl #16
2235:bluetooth_rxtx.c **** 						|  packet[CRC_INIT+0];
 1077              		.loc 1 2235 0
 1078 0132 A87D     		ldrb	r0, [r5, #22]	@ zero_extendqisi2
 1079 0134 1843     		orrs	r0, r0, r3
2233:bluetooth_rxtx.c **** 						| (packet[CRC_INIT+1] << 8)
 1080              		.loc 1 2233 0
 1081 0136 E060     		str	r0, [r4, #12]
2236:bluetooth_rxtx.c **** 			le.crc_init_reversed = rbit(le.crc_init);
 1082              		.loc 1 2236 0
 1083 0138 FFF7FEFF 		bl	rbit
 1084              	.LVL112:
2237:bluetooth_rxtx.c **** 
2238:bluetooth_rxtx.c **** #define WIN_SIZE (2+4+6+6+4+3)
2239:bluetooth_rxtx.c **** 			le.win_size = packet[WIN_SIZE];
 1085              		.loc 1 2239 0
 1086 013c 6B7E     		ldrb	r3, [r5, #25]	@ zero_extendqisi2
2236:bluetooth_rxtx.c **** 			le.crc_init_reversed = rbit(le.crc_init);
 1087              		.loc 1 2236 0
 1088 013e 2061     		str	r0, [r4, #16]
 1089              		.loc 1 2239 0
 1090 0140 84F82630 		strb	r3, [r4, #38]
2240:bluetooth_rxtx.c **** 
2241:bluetooth_rxtx.c **** #define WIN_OFFSET (2+4+6+6+4+3+1)
2242:bluetooth_rxtx.c **** 			le.win_offset = packet[WIN_OFFSET];
 1091              		.loc 1 2242 0
 1092 0144 AB7E     		ldrb	r3, [r5, #26]	@ zero_extendqisi2
ARM GAS  /var/folders/s6/4bph2j8d1nvcsgz5bgm0yhx00000gn/T//ccF5ee78.s 			page 62


 1093 0146 2385     		strh	r3, [r4, #40]	@ movhi
2243:bluetooth_rxtx.c **** 
2244:bluetooth_rxtx.c **** #define CONN_INTERVAL (2+4+6+6+4+3+1+2)
2245:bluetooth_rxtx.c **** 			le.conn_interval = (packet[CONN_INTERVAL+1] << 8)
 1094              		.loc 1 2245 0
 1095 0148 6A7F     		ldrb	r2, [r5, #29]	@ zero_extendqisi2
 1096 014a 2B7F     		ldrb	r3, [r5, #28]	@ zero_extendqisi2
 1097 014c 43EA0223 		orr	r3, r3, r2, lsl #8
 1098 0150 6384     		strh	r3, [r4, #34]	@ movhi
2246:bluetooth_rxtx.c **** 							 |  packet[CONN_INTERVAL+0];
2247:bluetooth_rxtx.c **** 
2248:bluetooth_rxtx.c **** #define CHANNEL_INC (2+4+6+6+4+3+1+2+2+2+2+5)
2249:bluetooth_rxtx.c **** 			le.channel_increment = packet[CHANNEL_INC] & 0x1f;
 1099              		.loc 1 2249 0
 1100 0152 95F82730 		ldrb	r3, [r5, #39]	@ zero_extendqisi2
2250:bluetooth_rxtx.c **** 			le.channel_idx = le.channel_increment;
2251:bluetooth_rxtx.c **** 
2252:bluetooth_rxtx.c **** 			// Hop to the initial channel immediately
2253:bluetooth_rxtx.c **** 			do_hop = 1;
 1101              		.loc 1 2253 0
 1102 0156 0122     		movs	r2, #1
2249:bluetooth_rxtx.c **** 			le.channel_idx = le.channel_increment;
 1103              		.loc 1 2249 0
 1104 0158 03F01F03 		and	r3, r3, #31
 1105 015c A376     		strb	r3, [r4, #26]
2250:bluetooth_rxtx.c **** 			le.channel_idx = le.channel_increment;
 1106              		.loc 1 2250 0
 1107 015e 6376     		strb	r3, [r4, #25]
 1108              		.loc 1 2253 0
 1109 0160 034B     		ldr	r3, .L84+8
 1110 0162 DA72     		strb	r2, [r3, #11]
 1111              	.L67:
 1112 0164 70BD     		pop	{r4, r5, r6, pc}
 1113              	.LVL113:
 1114              	.L85:
 1115 0166 00BF     		.align	2
 1116              	.L84:
 1117 0168 00000000 		.word	.LANCHOR1
 1118 016c 00000000 		.word	clkn
 1119 0170 00000000 		.word	.LANCHOR0
 1120              	.LBE13:
 1121              	.LBE12:
 1122              		.cfi_endproc
 1123              	.LFE25:
 1125              		.section	.text.connection_follow_cb,"ax",%progbits
 1126              		.align	1
 1127              		.global	connection_follow_cb
 1128              		.thumb
 1129              		.thumb_func
 1131              	connection_follow_cb:
 1132              	.LFB26:
2254:bluetooth_rxtx.c **** 		}
2255:bluetooth_rxtx.c **** 	}
2256:bluetooth_rxtx.c **** }
2257:bluetooth_rxtx.c **** 
2258:bluetooth_rxtx.c **** 
2259:bluetooth_rxtx.c **** /**
ARM GAS  /var/folders/s6/4bph2j8d1nvcsgz5bgm0yhx00000gn/T//ccF5ee78.s 			page 63


2260:bluetooth_rxtx.c ****  * Called when we receive a packet in connection following mode.
2261:bluetooth_rxtx.c ****  */
2262:bluetooth_rxtx.c **** void connection_follow_cb(u8 *packet) {
 1133              		.loc 1 2262 0
 1134              		.cfi_startproc
 1135              		@ args = 0, pretend = 0, frame = 0
 1136              		@ frame_needed = 0, uses_anonymous_args = 0
 1137              	.LVL114:
 1138 0000 70B5     		push	{r4, r5, r6, lr}
 1139              		.cfi_def_cfa_offset 16
 1140              		.cfi_offset 4, -16
 1141              		.cfi_offset 5, -12
 1142              		.cfi_offset 6, -8
 1143              		.cfi_offset 14, -4
 1144              	.LVL115:
2263:bluetooth_rxtx.c **** 	int i;
2264:bluetooth_rxtx.c **** 	u32 aa = 0;
2265:bluetooth_rxtx.c **** 
2266:bluetooth_rxtx.c **** #define ADV_ADDRESS_IDX 0
2267:bluetooth_rxtx.c **** #define HEADER_IDX 4
2268:bluetooth_rxtx.c **** #define DATA_LEN_IDX 5
2269:bluetooth_rxtx.c **** #define DATA_START_IDX 6
2270:bluetooth_rxtx.c **** 
2271:bluetooth_rxtx.c **** 	// u8 *adv_addr = &packet[ADV_ADDRESS_IDX];
2272:bluetooth_rxtx.c **** 	u8 header = packet[HEADER_IDX];
2273:bluetooth_rxtx.c **** 	u8 *data_len = &packet[DATA_LEN_IDX];
2274:bluetooth_rxtx.c **** 	u8 *data = &packet[DATA_START_IDX];
2275:bluetooth_rxtx.c **** 	// u8 *crc = &packet[DATA_START_IDX + *data_len];
2276:bluetooth_rxtx.c **** 
2277:bluetooth_rxtx.c **** 	if (le.link_state == LINK_CONN_PENDING) {
 1145              		.loc 1 2277 0
 1146 0002 594B     		ldr	r3, .L103
2262:bluetooth_rxtx.c **** 	int i;
 1147              		.loc 1 2262 0
 1148 0004 0546     		mov	r5, r0
 1149              		.loc 1 2277 0
 1150 0006 197E     		ldrb	r1, [r3, #24]	@ zero_extendqisi2
2272:bluetooth_rxtx.c **** 	u8 *data_len = &packet[DATA_LEN_IDX];
 1151              		.loc 1 2272 0
 1152 0008 0279     		ldrb	r2, [r0, #4]	@ zero_extendqisi2
 1153              	.LVL116:
 1154              		.loc 1 2277 0
 1155 000a 0229     		cmp	r1, #2
 1156 000c 1C46     		mov	r4, r3
 1157 000e 13D1     		bne	.L87
2278:bluetooth_rxtx.c **** 		// We received a packet in the connection pending state, so now the device *should* be connected
2279:bluetooth_rxtx.c **** 		le.link_state = LINK_CONNECTED;
 1158              		.loc 1 2279 0
 1159 0010 0322     		movs	r2, #3
 1160              	.LVL117:
 1161 0012 1A76     		strb	r2, [r3, #24]
 1162              	.LVL118:
2280:bluetooth_rxtx.c **** 		le.conn_epoch = clkn;
 1163              		.loc 1 2280 0
 1164 0014 554A     		ldr	r2, .L103+4
 1165 0016 1268     		ldr	r2, [r2]
 1166 0018 DA61     		str	r2, [r3, #28]
ARM GAS  /var/folders/s6/4bph2j8d1nvcsgz5bgm0yhx00000gn/T//ccF5ee78.s 			page 64


2281:bluetooth_rxtx.c **** 		le.interval_timer = le.conn_interval - 1;
 1167              		.loc 1 2281 0
 1168 001a 5A8C     		ldrh	r2, [r3, #34]
 1169 001c 013A     		subs	r2, r2, #1
 1170 001e 92B2     		uxth	r2, r2
 1171 0020 1A84     		strh	r2, [r3, #32]	@ movhi
2282:bluetooth_rxtx.c **** 		le.conn_count = 0;
 1172              		.loc 1 2282 0
 1173 0022 0022     		movs	r2, #0
 1174 0024 9A84     		strh	r2, [r3, #36]	@ movhi
2283:bluetooth_rxtx.c **** 		le.update_pending = 0;
 1175              		.loc 1 2283 0
 1176 0026 DA62     		str	r2, [r3, #44]
2284:bluetooth_rxtx.c **** 
2285:bluetooth_rxtx.c **** 		// hue hue hue
2286:bluetooth_rxtx.c **** 		if (jam_mode != JAM_NONE)
 1177              		.loc 1 2286 0
 1178 0028 514B     		ldr	r3, .L103+8
 1179 002a DA7C     		ldrb	r2, [r3, #19]	@ zero_extendqisi2
 1180 002c 002A     		cmp	r2, #0
 1181 002e 00F09980 		beq	.L86
2287:bluetooth_rxtx.c **** 			le_jam_count = JAM_COUNT_DEFAULT;
 1182              		.loc 1 2287 0
 1183 0032 2822     		movs	r2, #40
 1184 0034 DA61     		str	r2, [r3, #28]
 1185 0036 70BD     		pop	{r4, r5, r6, pc}
 1186              	.LVL119:
 1187              	.L87:
2288:bluetooth_rxtx.c **** 
2289:bluetooth_rxtx.c **** 	} else if (le.link_state == LINK_CONNECTED) {
 1188              		.loc 1 2289 0
 1189 0038 0329     		cmp	r1, #3
 1190 003a 3BD1     		bne	.L90
 1191              	.LBB14:
2290:bluetooth_rxtx.c **** 		u8 llid =  header & 0x03;
2291:bluetooth_rxtx.c **** 
2292:bluetooth_rxtx.c **** 		// Apply any connection parameter update if necessary
2293:bluetooth_rxtx.c **** 		if (le.update_pending && le.conn_count == le.update_instant) {
 1192              		.loc 1 2293 0
 1193 003c DB6A     		ldr	r3, [r3, #44]
2290:bluetooth_rxtx.c **** 		u8 llid =  header & 0x03;
 1194              		.loc 1 2290 0
 1195 003e 02F00302 		and	r2, r2, #3
 1196              	.LVL120:
 1197              		.loc 1 2293 0
 1198 0042 A3B1     		cbz	r3, .L91
 1199              		.loc 1 2293 0 is_stmt 0 discriminator 1
 1200 0044 A38C     		ldrh	r3, [r4, #36]
 1201 0046 218E     		ldrh	r1, [r4, #48]
 1202 0048 9BB2     		uxth	r3, r3
 1203 004a 9942     		cmp	r1, r3
 1204 004c 0FD1     		bne	.L91
2294:bluetooth_rxtx.c **** 			// This is the first packet received in the connection interval for which the new parameters app
2295:bluetooth_rxtx.c **** 			le.conn_epoch = clkn;
 1205              		.loc 1 2295 0 is_stmt 1
 1206 004e 474B     		ldr	r3, .L103+4
 1207 0050 1B68     		ldr	r3, [r3]
ARM GAS  /var/folders/s6/4bph2j8d1nvcsgz5bgm0yhx00000gn/T//ccF5ee78.s 			page 65


 1208 0052 E361     		str	r3, [r4, #28]
 1209              	.LVL121:
2296:bluetooth_rxtx.c **** 			le.conn_interval = le.interval_update;
 1210              		.loc 1 2296 0
 1211 0054 638E     		ldrh	r3, [r4, #50]
 1212 0056 6384     		strh	r3, [r4, #34]	@ movhi
2297:bluetooth_rxtx.c **** 			le.interval_timer = le.interval_update - 1;
 1213              		.loc 1 2297 0
 1214 0058 013B     		subs	r3, r3, #1
 1215 005a 9BB2     		uxth	r3, r3
 1216 005c 2384     		strh	r3, [r4, #32]	@ movhi
2298:bluetooth_rxtx.c **** 			le.win_size = le.win_size_update;
 1217              		.loc 1 2298 0
 1218 005e 94F83430 		ldrb	r3, [r4, #52]	@ zero_extendqisi2
 1219 0062 84F82630 		strb	r3, [r4, #38]
2299:bluetooth_rxtx.c **** 			le.win_offset = le.win_offset_update;
 1220              		.loc 1 2299 0
 1221 0066 E38E     		ldrh	r3, [r4, #54]
 1222 0068 2385     		strh	r3, [r4, #40]	@ movhi
2300:bluetooth_rxtx.c **** 			le.update_pending = 0;
 1223              		.loc 1 2300 0
 1224 006a 0023     		movs	r3, #0
 1225 006c E362     		str	r3, [r4, #44]
 1226              	.L91:
2301:bluetooth_rxtx.c **** 		}
2302:bluetooth_rxtx.c **** 
2303:bluetooth_rxtx.c **** 		if (llid == 0x03 && data[0] == 0x00) {
 1227              		.loc 1 2303 0
 1228 006e 032A     		cmp	r2, #3
 1229 0070 78D1     		bne	.L86
 1230              		.loc 1 2303 0 is_stmt 0 discriminator 1
 1231 0072 AB79     		ldrb	r3, [r5, #6]	@ zero_extendqisi2
 1232 0074 002B     		cmp	r3, #0
 1233 0076 75D1     		bne	.L86
2304:bluetooth_rxtx.c **** 			// This is a CONNECTION_UPDATE_REQ.
2305:bluetooth_rxtx.c **** 			// The host is changing the connection parameters.
2306:bluetooth_rxtx.c **** 			le.win_size_update = packet[7];
 1234              		.loc 1 2306 0 is_stmt 1
 1235 0078 EB79     		ldrb	r3, [r5, #7]	@ zero_extendqisi2
 1236 007a 84F83430 		strb	r3, [r4, #52]
2307:bluetooth_rxtx.c **** 			le.win_offset_update = packet[8] + ((u16)packet[9] << 8);
 1237              		.loc 1 2307 0
 1238 007e 6A7A     		ldrb	r2, [r5, #9]	@ zero_extendqisi2
 1239              	.LVL122:
 1240 0080 2B7A     		ldrb	r3, [r5, #8]	@ zero_extendqisi2
 1241 0082 03EB0223 		add	r3, r3, r2, lsl #8
 1242 0086 E386     		strh	r3, [r4, #54]	@ movhi
2308:bluetooth_rxtx.c **** 			le.interval_update = packet[10] + ((u16)packet[11] << 8);
 1243              		.loc 1 2308 0
 1244 0088 EA7A     		ldrb	r2, [r5, #11]	@ zero_extendqisi2
 1245 008a AB7A     		ldrb	r3, [r5, #10]	@ zero_extendqisi2
 1246 008c 03EB0223 		add	r3, r3, r2, lsl #8
 1247 0090 6386     		strh	r3, [r4, #50]	@ movhi
2309:bluetooth_rxtx.c **** 			le.update_instant = packet[16] + ((u16)packet[17] << 8);
 1248              		.loc 1 2309 0
 1249 0092 6A7C     		ldrb	r2, [r5, #17]	@ zero_extendqisi2
 1250 0094 2B7C     		ldrb	r3, [r5, #16]	@ zero_extendqisi2
ARM GAS  /var/folders/s6/4bph2j8d1nvcsgz5bgm0yhx00000gn/T//ccF5ee78.s 			page 66


 1251 0096 03EB0223 		add	r3, r3, r2, lsl #8
2310:bluetooth_rxtx.c **** 			if (le.update_instant - le.conn_count < 32767)
 1252              		.loc 1 2310 0
 1253 009a A28C     		ldrh	r2, [r4, #36]
2309:bluetooth_rxtx.c **** 			le.update_instant = packet[16] + ((u16)packet[17] << 8);
 1254              		.loc 1 2309 0
 1255 009c 9BB2     		uxth	r3, r3
 1256              		.loc 1 2310 0
 1257 009e 92B2     		uxth	r2, r2
2309:bluetooth_rxtx.c **** 			le.update_instant = packet[16] + ((u16)packet[17] << 8);
 1258              		.loc 1 2309 0
 1259 00a0 2386     		strh	r3, [r4, #48]	@ movhi
 1260              		.loc 1 2310 0
 1261 00a2 9B1A     		subs	r3, r3, r2
 1262 00a4 47F6FE72 		movw	r2, #32766
 1263 00a8 9342     		cmp	r3, r2
 1264 00aa 5BDC     		bgt	.L86
2311:bluetooth_rxtx.c **** 				le.update_pending = 1;
 1265              		.loc 1 2311 0
 1266 00ac 2E4B     		ldr	r3, .L103
 1267 00ae 0122     		movs	r2, #1
 1268 00b0 DA62     		str	r2, [r3, #44]
 1269 00b2 70BD     		pop	{r4, r5, r6, pc}
 1270              	.LVL123:
 1271              	.L90:
 1272              	.LBE14:
2312:bluetooth_rxtx.c **** 		}
2313:bluetooth_rxtx.c **** 
2314:bluetooth_rxtx.c **** 	} else if (le.link_state == LINK_LISTENING) {
 1273              		.loc 1 2314 0
 1274 00b4 0129     		cmp	r1, #1
 1275 00b6 55D1     		bne	.L86
 1276              	.LVL124:
 1277              	.LBB15:
2315:bluetooth_rxtx.c **** 		u8 pkt_type = packet[4] & 0x0F;
2316:bluetooth_rxtx.c **** 		if (pkt_type == 0x05) {
 1278              		.loc 1 2316 0
 1279 00b8 02F00F02 		and	r2, r2, #15
 1280              	.LVL125:
 1281 00bc 052A     		cmp	r2, #5
 1282 00be 51D1     		bne	.L86
 1283              	.LBB16:
2317:bluetooth_rxtx.c **** 			uint16_t conn_interval;
2318:bluetooth_rxtx.c **** 
2319:bluetooth_rxtx.c **** 			// ignore packets with incorrect length
2320:bluetooth_rxtx.c **** 			if (*data_len != 34)
 1284              		.loc 1 2320 0
 1285 00c0 4379     		ldrb	r3, [r0, #5]	@ zero_extendqisi2
 1286 00c2 222B     		cmp	r3, #34
 1287 00c4 4ED1     		bne	.L86
 1288              	.LVL126:
2321:bluetooth_rxtx.c **** 				return;
2322:bluetooth_rxtx.c **** 
2323:bluetooth_rxtx.c **** 			// conn interval must be [7.5 ms, 4.0s] in units of 1.25 ms
2324:bluetooth_rxtx.c **** 			conn_interval = (packet[29] << 8) | packet[28];
 1289              		.loc 1 2324 0
 1290 00c6 427F     		ldrb	r2, [r0, #29]	@ zero_extendqisi2
ARM GAS  /var/folders/s6/4bph2j8d1nvcsgz5bgm0yhx00000gn/T//ccF5ee78.s 			page 67


 1291 00c8 037F     		ldrb	r3, [r0, #28]	@ zero_extendqisi2
 1292 00ca 43EA0223 		orr	r3, r3, r2, lsl #8
2325:bluetooth_rxtx.c **** 			if (conn_interval < 6 || conn_interval > 3200)
 1293              		.loc 1 2325 0
 1294 00ce 40F67A42 		movw	r2, #3194
 1295 00d2 063B     		subs	r3, r3, #6
 1296 00d4 9BB2     		uxth	r3, r3
 1297 00d6 9342     		cmp	r3, r2
 1298 00d8 44D8     		bhi	.L86
2326:bluetooth_rxtx.c **** 				return;
2327:bluetooth_rxtx.c **** 
2328:bluetooth_rxtx.c **** 			// This is a connect packet
2329:bluetooth_rxtx.c **** 			// if we have a target, see if InitA or AdvA matches
2330:bluetooth_rxtx.c **** 			if (le.target_set &&
 1299              		.loc 1 2330 0
 1300 00da 236C     		ldr	r3, [r4, #64]
 1301 00dc 3BB9     		cbnz	r3, .L93
 1302              	.LVL127:
 1303              	.L95:
2331:bluetooth_rxtx.c **** 				memcmp(le.target, &packet[6], 6) &&  // Target address doesn't match Initiator.
2332:bluetooth_rxtx.c **** 				memcmp(le.target, &packet[12], 6)) {  // Target address doesn't match Advertiser.
2333:bluetooth_rxtx.c **** 				return;
2334:bluetooth_rxtx.c **** 			}
2335:bluetooth_rxtx.c **** 
2336:bluetooth_rxtx.c **** 			le.link_state = LINK_CONN_PENDING;
 1304              		.loc 1 2336 0
 1305 00de 0223     		movs	r3, #2
2337:bluetooth_rxtx.c **** 			le.crc_verify = 0; // we will drop many packets if we attempt to filter by CRC
 1306              		.loc 1 2337 0
 1307 00e0 0020     		movs	r0, #0
2336:bluetooth_rxtx.c **** 			le.crc_verify = 0; // we will drop many packets if we attempt to filter by CRC
 1308              		.loc 1 2336 0
 1309 00e2 2376     		strb	r3, [r4, #24]
 1310              		.loc 1 2337 0
 1311 00e4 6061     		str	r0, [r4, #20]
 1312              	.LVL128:
 1313 00e6 05F11101 		add	r1, r5, #17
2338:bluetooth_rxtx.c **** 
2339:bluetooth_rxtx.c **** 			for (i = 0; i < 4; ++i)
 1314              		.loc 1 2339 0
 1315 00ea 0346     		mov	r3, r0
 1316 00ec 11E0     		b	.L94
 1317              	.LVL129:
 1318              	.L93:
2331:bluetooth_rxtx.c **** 				memcmp(le.target, &packet[12], 6)) {  // Target address doesn't match Advertiser.
 1319              		.loc 1 2331 0 discriminator 1
 1320 00ee 04F13800 		add	r0, r4, #56
 1321              	.LVL130:
 1322 00f2 A91D     		adds	r1, r5, #6
 1323 00f4 0622     		movs	r2, #6
 1324 00f6 FFF7FEFF 		bl	memcmp
 1325              	.LVL131:
2330:bluetooth_rxtx.c **** 				memcmp(le.target, &packet[6], 6) &&  // Target address doesn't match Initiator.
 1326              		.loc 1 2330 0 discriminator 1
 1327 00fa 0028     		cmp	r0, #0
 1328 00fc EFD0     		beq	.L95
2332:bluetooth_rxtx.c **** 				return;
ARM GAS  /var/folders/s6/4bph2j8d1nvcsgz5bgm0yhx00000gn/T//ccF5ee78.s 			page 68


 1329              		.loc 1 2332 0
 1330 00fe 04F13800 		add	r0, r4, #56
 1331 0102 05F10C01 		add	r1, r5, #12
 1332 0106 0622     		movs	r2, #6
 1333 0108 FFF7FEFF 		bl	memcmp
 1334              	.LVL132:
2331:bluetooth_rxtx.c **** 				memcmp(le.target, &packet[12], 6)) {  // Target address doesn't match Advertiser.
 1335              		.loc 1 2331 0
 1336 010c 0028     		cmp	r0, #0
 1337 010e E6D0     		beq	.L95
 1338 0110 70BD     		pop	{r4, r5, r6, pc}
 1339              	.LVL133:
 1340              	.L94:
2340:bluetooth_rxtx.c **** 				aa |= packet[18+i] << (i*8);
 1341              		.loc 1 2340 0 discriminator 3
 1342 0112 11F8012F 		ldrb	r2, [r1, #1]!	@ zero_extendqisi2
 1343 0116 DE00     		lsls	r6, r3, #3
2339:bluetooth_rxtx.c **** 				aa |= packet[18+i] << (i*8);
 1344              		.loc 1 2339 0 discriminator 3
 1345 0118 0133     		adds	r3, r3, #1
 1346              	.LVL134:
 1347              		.loc 1 2340 0 discriminator 3
 1348 011a B240     		lsls	r2, r2, r6
2339:bluetooth_rxtx.c **** 				aa |= packet[18+i] << (i*8);
 1349              		.loc 1 2339 0 discriminator 3
 1350 011c 042B     		cmp	r3, #4
 1351              		.loc 1 2340 0 discriminator 3
 1352 011e 40EA0200 		orr	r0, r0, r2
 1353              	.LVL135:
2339:bluetooth_rxtx.c **** 				aa |= packet[18+i] << (i*8);
 1354              		.loc 1 2339 0 discriminator 3
 1355 0122 F6D1     		bne	.L94
2341:bluetooth_rxtx.c **** 			le_set_access_address(aa);
 1356              		.loc 1 2341 0
 1357 0124 FFF7FEFF 		bl	le_set_access_address
 1358              	.LVL136:
2342:bluetooth_rxtx.c **** 
2343:bluetooth_rxtx.c **** #define CRC_INIT (2+4+6+6+4)
2344:bluetooth_rxtx.c **** 			le.crc_init = (packet[CRC_INIT+2] << 16)
2345:bluetooth_rxtx.c **** 						| (packet[CRC_INIT+1] << 8)
 1359              		.loc 1 2345 0
 1360 0128 EB7D     		ldrb	r3, [r5, #23]	@ zero_extendqisi2
2344:bluetooth_rxtx.c **** 						| (packet[CRC_INIT+1] << 8)
 1361              		.loc 1 2344 0
 1362 012a 287E     		ldrb	r0, [r5, #24]	@ zero_extendqisi2
 1363              		.loc 1 2345 0
 1364 012c 1B02     		lsls	r3, r3, #8
 1365 012e 43EA0043 		orr	r3, r3, r0, lsl #16
2346:bluetooth_rxtx.c **** 						|  packet[CRC_INIT+0];
 1366              		.loc 1 2346 0
 1367 0132 A87D     		ldrb	r0, [r5, #22]	@ zero_extendqisi2
 1368 0134 1843     		orrs	r0, r0, r3
2344:bluetooth_rxtx.c **** 						| (packet[CRC_INIT+1] << 8)
 1369              		.loc 1 2344 0
 1370 0136 E060     		str	r0, [r4, #12]
2347:bluetooth_rxtx.c **** 			le.crc_init_reversed = rbit(le.crc_init);
 1371              		.loc 1 2347 0
ARM GAS  /var/folders/s6/4bph2j8d1nvcsgz5bgm0yhx00000gn/T//ccF5ee78.s 			page 69


 1372 0138 FFF7FEFF 		bl	rbit
 1373              	.LVL137:
2348:bluetooth_rxtx.c **** 
2349:bluetooth_rxtx.c **** #define WIN_SIZE (2+4+6+6+4+3)
2350:bluetooth_rxtx.c **** 			le.win_size = packet[WIN_SIZE];
 1374              		.loc 1 2350 0
 1375 013c 6B7E     		ldrb	r3, [r5, #25]	@ zero_extendqisi2
2347:bluetooth_rxtx.c **** 			le.crc_init_reversed = rbit(le.crc_init);
 1376              		.loc 1 2347 0
 1377 013e 2061     		str	r0, [r4, #16]
 1378              		.loc 1 2350 0
 1379 0140 84F82630 		strb	r3, [r4, #38]
2351:bluetooth_rxtx.c **** 
2352:bluetooth_rxtx.c **** #define WIN_OFFSET (2+4+6+6+4+3+1)
2353:bluetooth_rxtx.c **** 			le.win_offset = packet[WIN_OFFSET];
 1380              		.loc 1 2353 0
 1381 0144 AB7E     		ldrb	r3, [r5, #26]	@ zero_extendqisi2
 1382 0146 2385     		strh	r3, [r4, #40]	@ movhi
2354:bluetooth_rxtx.c **** 
2355:bluetooth_rxtx.c **** #define CONN_INTERVAL (2+4+6+6+4+3+1+2)
2356:bluetooth_rxtx.c **** 			le.conn_interval = (packet[CONN_INTERVAL+1] << 8)
 1383              		.loc 1 2356 0
 1384 0148 6A7F     		ldrb	r2, [r5, #29]	@ zero_extendqisi2
 1385 014a 2B7F     		ldrb	r3, [r5, #28]	@ zero_extendqisi2
 1386 014c 43EA0223 		orr	r3, r3, r2, lsl #8
 1387 0150 6384     		strh	r3, [r4, #34]	@ movhi
2357:bluetooth_rxtx.c **** 							 |  packet[CONN_INTERVAL+0];
2358:bluetooth_rxtx.c **** 
2359:bluetooth_rxtx.c **** #define CHANNEL_INC (2+4+6+6+4+3+1+2+2+2+2+5)
2360:bluetooth_rxtx.c **** 			le.channel_increment = packet[CHANNEL_INC] & 0x1f;
 1388              		.loc 1 2360 0
 1389 0152 95F82730 		ldrb	r3, [r5, #39]	@ zero_extendqisi2
2361:bluetooth_rxtx.c **** 			le.channel_idx = le.channel_increment;
2362:bluetooth_rxtx.c **** 
2363:bluetooth_rxtx.c **** 			// Hop to the initial channel immediately
2364:bluetooth_rxtx.c **** 			do_hop = 1;
 1390              		.loc 1 2364 0
 1391 0156 0122     		movs	r2, #1
2360:bluetooth_rxtx.c **** 			le.channel_idx = le.channel_increment;
 1392              		.loc 1 2360 0
 1393 0158 03F01F03 		and	r3, r3, #31
 1394 015c A376     		strb	r3, [r4, #26]
2361:bluetooth_rxtx.c **** 			le.channel_idx = le.channel_increment;
 1395              		.loc 1 2361 0
 1396 015e 6376     		strb	r3, [r4, #25]
 1397              		.loc 1 2364 0
 1398 0160 034B     		ldr	r3, .L103+8
 1399 0162 DA72     		strb	r2, [r3, #11]
 1400              	.L86:
 1401 0164 70BD     		pop	{r4, r5, r6, pc}
 1402              	.LVL138:
 1403              	.L104:
 1404 0166 00BF     		.align	2
 1405              	.L103:
 1406 0168 00000000 		.word	.LANCHOR1
 1407 016c 00000000 		.word	clkn
 1408 0170 00000000 		.word	.LANCHOR0
ARM GAS  /var/folders/s6/4bph2j8d1nvcsgz5bgm0yhx00000gn/T//ccF5ee78.s 			page 70


 1409              	.LBE16:
 1410              	.LBE15:
 1411              		.cfi_endproc
 1412              	.LFE26:
 1414              		.global	__aeabi_llsl
 1415              		.section	.text.vendor_request_handler,"ax",%progbits
 1416              		.align	1
 1417              		.thumb
 1418              		.thumb_func
 1420              	vendor_request_handler:
 1421              	.LFB2:
 186:bluetooth_rxtx.c **** 	uint32_t clock;
 1422              		.loc 1 186 0
 1423              		.cfi_startproc
 1424              		@ args = 0, pretend = 0, frame = 0
 1425              		@ frame_needed = 0, uses_anonymous_args = 0
 1426              	.LVL139:
 1427 0000 F8B5     		push	{r3, r4, r5, r6, r7, lr}
 1428              		.cfi_def_cfa_offset 24
 1429              		.cfi_offset 3, -24
 1430              		.cfi_offset 4, -20
 1431              		.cfi_offset 5, -16
 1432              		.cfi_offset 6, -12
 1433              		.cfi_offset 7, -8
 1434              		.cfi_offset 14, -4
 1435              	.LVL140:
 186:bluetooth_rxtx.c **** 	uint32_t clock;
 1436              		.loc 1 186 0
 1437 0002 0E46     		mov	r6, r1
 1438 0004 1546     		mov	r5, r2
 1439 0006 1C46     		mov	r4, r3
 193:bluetooth_rxtx.c **** 
 1440              		.loc 1 193 0
 1441 0008 4728     		cmp	r0, #71
 1442 000a 00F22483 		bhi	.L211
 1443 000e DFE810F0 		tbh	[pc, r0, lsl #1]
 1444              	.LVL141:
 1445              	.L108:
 1446 0012 0301     		.2byte	(.L238-.L108)/2
 1447 0014 4800     		.2byte	(.L109-.L108)/2
 1448 0016 4D00     		.2byte	(.L110-.L108)/2
 1449 0018 5100     		.2byte	(.L111-.L108)/2
 1450 001a 5600     		.2byte	(.L112-.L108)/2
 1451 001c 5900     		.2byte	(.L113-.L108)/2
 1452 001e 5E00     		.2byte	(.L114-.L108)/2
 1453 0020 6100     		.2byte	(.L115-.L108)/2
 1454 0022 6300     		.2byte	(.L116-.L108)/2
 1455 0024 6700     		.2byte	(.L117-.L108)/2
 1456 0026 6C00     		.2byte	(.L118-.L108)/2
 1457 0028 C000     		.2byte	(.L119-.L108)/2
 1458 002a C700     		.2byte	(.L120-.L108)/2
 1459 002c 0901     		.2byte	(.L248-.L108)/2
 1460 002e 7A00     		.2byte	(.L122-.L108)/2
 1461 0030 7500     		.2byte	(.L123-.L108)/2
 1462 0032 7F00     		.2byte	(.L124-.L108)/2
 1463 0034 8400     		.2byte	(.L125-.L108)/2
 1464 0036 8700     		.2byte	(.L126-.L108)/2
ARM GAS  /var/folders/s6/4bph2j8d1nvcsgz5bgm0yhx00000gn/T//ccF5ee78.s 			page 71


 1465 0038 8C00     		.2byte	(.L127-.L108)/2
 1466 003a 9400     		.2byte	(.L128-.L108)/2
 1467 003c B800     		.2byte	(.L129-.L108)/2
 1468 003e BA00     		.2byte	(.L130-.L108)/2
 1469 0040 BC00     		.2byte	(.L131-.L108)/2
 1470 0042 0101     		.2byte	(.L132-.L108)/2
 1471 0044 0601     		.2byte	(.L133-.L108)/2
 1472 0046 2203     		.2byte	(.L211-.L108)/2
 1473 0048 0B01     		.2byte	(.L134-.L108)/2
 1474 004a 9800     		.2byte	(.L135-.L108)/2
 1475 004c 9F00     		.2byte	(.L136-.L108)/2
 1476 004e A900     		.2byte	(.L137-.L108)/2
 1477 0050 A700     		.2byte	(.L138-.L108)/2
 1478 0052 AB00     		.2byte	(.L139-.L108)/2
 1479 0054 3401     		.2byte	(.L140-.L108)/2
 1480 0056 2701     		.2byte	(.L141-.L108)/2
 1481 0058 5101     		.2byte	(.L142-.L108)/2
 1482 005a 5401     		.2byte	(.L143-.L108)/2
 1483 005c 5801     		.2byte	(.L144-.L108)/2
 1484 005e 5C01     		.2byte	(.L145-.L108)/2
 1485 0060 A501     		.2byte	(.L146-.L108)/2
 1486 0062 DD01     		.2byte	(.L147-.L108)/2
 1487 0064 0002     		.2byte	(.L148-.L108)/2
 1488 0066 4002     		.2byte	(.L149-.L108)/2
 1489 0068 5002     		.2byte	(.L201-.L108)/2
 1490 006a 5A02     		.2byte	(.L151-.L108)/2
 1491 006c 2003     		.2byte	(.L224-.L108)/2
 1492 006e 6902     		.2byte	(.L153-.L108)/2
 1493 0070 6E02     		.2byte	(.L154-.L108)/2
 1494 0072 7402     		.2byte	(.L155-.L108)/2
 1495 0074 7B02     		.2byte	(.L156-.L108)/2
 1496 0076 8902     		.2byte	(.L157-.L108)/2
 1497 0078 EA01     		.2byte	(.L202-.L108)/2
 1498 007a F601     		.2byte	(.L203-.L108)/2
 1499 007c 9702     		.2byte	(.L160-.L108)/2
 1500 007e D102     		.2byte	(.L161-.L108)/2
 1501 0080 4301     		.2byte	(.L162-.L108)/2
 1502 0082 E402     		.2byte	(.L163-.L108)/2
 1503 0084 2203     		.2byte	(.L211-.L108)/2
 1504 0086 9F02     		.2byte	(.L164-.L108)/2
 1505 0088 FA02     		.2byte	(.L165-.L108)/2
 1506 008a 1B03     		.2byte	(.L166-.L108)/2
 1507 008c C701     		.2byte	(.L167-.L108)/2
 1508 008e D901     		.2byte	(.L168-.L108)/2
 1509 0090 0C02     		.2byte	(.L169-.L108)/2
 1510 0092 2203     		.2byte	(.L211-.L108)/2
 1511 0094 A402     		.2byte	(.L204-.L108)/2
 1512 0096 B602     		.2byte	(.L171-.L108)/2
 1513 0098 2501     		.2byte	(.L172-.L108)/2
 1514 009a C602     		.2byte	(.L173-.L108)/2
 1515 009c 1302     		.2byte	(.L174-.L108)/2
 1516 009e DA02     		.2byte	(.L175-.L108)/2
 1517 00a0 4802     		.2byte	(.L176-.L108)/2
 1518              		.p2align 1
 1519              	.L109:
 200:bluetooth_rxtx.c **** 		*data_len = 0;
 1520              		.loc 1 200 0
ARM GAS  /var/folders/s6/4bph2j8d1nvcsgz5bgm0yhx00000gn/T//ccF5ee78.s 			page 72


 1521 00a2 9F4B     		ldr	r3, .L257
 1522 00a4 0120     		movs	r0, #1
 1523              	.LVL142:
 1524 00a6 9874     		strb	r0, [r3, #18]
 201:bluetooth_rxtx.c **** 		break;
 1525              		.loc 1 201 0
 1526 00a8 0023     		movs	r3, #0
 1527 00aa A6E1     		b	.L228
 1528              	.LVL143:
 1529              	.L110:
 205:bluetooth_rxtx.c **** 		requested_mode = MODE_TX_SYMBOLS;
 1530              		.loc 1 205 0
 1531 00ac 9C4B     		ldr	r3, .L257
 1532 00ae 0222     		movs	r2, #2
 1533              	.LVL144:
 1534 00b0 9A72     		strb	r2, [r3, #10]
 1535 00b2 7DE2     		b	.L249
 1536              	.LVL145:
 1537              	.L111:
 211:bluetooth_rxtx.c **** 		*data_len = 1;
 1538              		.loc 1 211 0
 1539 00b4 9B4B     		ldr	r3, .L257+4
 1540 00b6 1B68     		ldr	r3, [r3]
 1541 00b8 C3F34003 		ubfx	r3, r3, #1, #1
 1542 00bc 03E1     		b	.L230
 1543              	.L112:
 216:bluetooth_rxtx.c **** 			USRLED_SET;
 1544              		.loc 1 216 0
 1545 00be 0A88     		ldrh	r2, [r1]
 1546              	.LVL146:
 1547 00c0 0223     		movs	r3, #2
 1548 00c2 15E0     		b	.L244
 1549              	.LVL147:
 1550              	.L113:
 223:bluetooth_rxtx.c **** 		*data_len = 1;
 1551              		.loc 1 223 0
 1552 00c4 974B     		ldr	r3, .L257+4
 1553 00c6 1B68     		ldr	r3, [r3]
 1554 00c8 C3F30013 		ubfx	r3, r3, #4, #1
 1555 00cc FBE0     		b	.L230
 1556              	.L114:
 228:bluetooth_rxtx.c **** 			RXLED_SET;
 1557              		.loc 1 228 0
 1558 00ce 0A88     		ldrh	r2, [r1]
 1559              	.LVL148:
 1560 00d0 1023     		movs	r3, #16
 1561 00d2 0DE0     		b	.L244
 1562              	.LVL149:
 1563              	.L115:
 235:bluetooth_rxtx.c **** 		*data_len = 1;
 1564              		.loc 1 235 0
 1565 00d4 934B     		ldr	r3, .L257+4
 1566 00d6 24E0     		b	.L252
 1567              	.L116:
 240:bluetooth_rxtx.c **** 			TXLED_SET;
 1568              		.loc 1 240 0
 1569 00d8 0A88     		ldrh	r2, [r1]
ARM GAS  /var/folders/s6/4bph2j8d1nvcsgz5bgm0yhx00000gn/T//ccF5ee78.s 			page 73


 1570              	.LVL150:
 1571 00da 4FF48073 		mov	r3, #256
 1572 00de 07E0     		b	.L244
 1573              	.LVL151:
 1574              	.L117:
 247:bluetooth_rxtx.c **** 		*data_len = 1;
 1575              		.loc 1 247 0
 1576 00e0 904B     		ldr	r3, .L257+4
 1577 00e2 1B68     		ldr	r3, [r3]
 1578 00e4 C3F34023 		ubfx	r3, r3, #9, #1
 1579 00e8 EDE0     		b	.L230
 1580              	.L118:
 252:bluetooth_rxtx.c **** 			CC1V8_SET;
 1581              		.loc 1 252 0
 1582 00ea 0A88     		ldrh	r2, [r1]
 1583              	.LVL152:
 1584 00ec 4FF40073 		mov	r3, #512
 1585              	.L244:
 1586 00f0 0AB1     		cbz	r2, .L180
 253:bluetooth_rxtx.c **** 		else
 1587              		.loc 1 253 0
 1588 00f2 8D4A     		ldr	r2, .L257+8
 1589 00f4 00E0     		b	.L232
 1590              	.L180:
 255:bluetooth_rxtx.c **** 		break;
 1591              		.loc 1 255 0
 1592 00f6 8D4A     		ldr	r2, .L257+12
 1593              	.L232:
 1594 00f8 1360     		str	r3, [r2]
 1595 00fa AAE2     		b	.L224
 1596              	.LVL153:
 1597              	.L123:
 259:bluetooth_rxtx.c **** 		break;
 1598              		.loc 1 259 0
 1599 00fc 1046     		mov	r0, r2
 1600              	.LVL154:
 1601 00fe 2146     		mov	r1, r4
 1602              	.LVL155:
 1603 0100 FFF7FEFF 		bl	get_part_num
 1604              	.LVL156:
 1605 0104 A5E2     		b	.L224
 1606              	.LVL157:
 1607              	.L122:
 267:bluetooth_rxtx.c **** 		break;
 1608              		.loc 1 267 0
 1609 0106 1046     		mov	r0, r2
 1610              	.LVL158:
 1611 0108 2146     		mov	r1, r4
 1612              	.LVL159:
 1613 010a FFF7FEFF 		bl	get_device_serial
 1614              	.LVL160:
 1615 010e A0E2     		b	.L224
 1616              	.LVL161:
 1617              	.L124:
 272:bluetooth_rxtx.c **** 		*data_len = 1;
 1618              		.loc 1 272 0
 1619 0110 874B     		ldr	r3, .L257+16
ARM GAS  /var/folders/s6/4bph2j8d1nvcsgz5bgm0yhx00000gn/T//ccF5ee78.s 			page 74


 1620 0112 1B68     		ldr	r3, [r3]
 1621 0114 C3F3C013 		ubfx	r3, r3, #7, #1
 1622 0118 D5E0     		b	.L230
 1623              	.L125:
 277:bluetooth_rxtx.c **** 			PAEN_SET;
 1624              		.loc 1 277 0
 1625 011a 0A88     		ldrh	r2, [r1]
 1626              	.LVL162:
 1627 011c 8023     		movs	r3, #128
 1628 011e 07E0     		b	.L247
 1629              	.LVL163:
 1630              	.L126:
 284:bluetooth_rxtx.c **** 		*data_len = 1;
 1631              		.loc 1 284 0
 1632 0120 834B     		ldr	r3, .L257+16
 1633              	.L252:
 1634 0122 1B68     		ldr	r3, [r3]
 1635 0124 C3F30023 		ubfx	r3, r3, #8, #1
 1636 0128 CDE0     		b	.L230
 1637              	.L127:
 289:bluetooth_rxtx.c **** 			HGM_SET;
 1638              		.loc 1 289 0
 1639 012a 0A88     		ldrh	r2, [r1]
 1640              	.LVL164:
 1641 012c 4FF48073 		mov	r3, #256
 1642              	.L247:
 1643 0130 0AB1     		cbz	r2, .L182
 290:bluetooth_rxtx.c **** 		else
 1644              		.loc 1 290 0
 1645 0132 804A     		ldr	r2, .L257+20
 1646 0134 E0E7     		b	.L232
 1647              	.L182:
 292:bluetooth_rxtx.c **** 		break;
 1648              		.loc 1 292 0
 1649 0136 804A     		ldr	r2, .L257+24
 1650 0138 DEE7     		b	.L232
 1651              	.LVL165:
 1652              	.L128:
 298:bluetooth_rxtx.c **** 		break;
 1653              		.loc 1 298 0
 1654 013a 0322     		movs	r2, #3
 1655              	.LVL166:
 1656              	.L233:
 1657 013c 784B     		ldr	r3, .L257
 1658 013e 9A74     		strb	r2, [r3, #18]
 1659 0140 87E2     		b	.L224
 1660              	.LVL167:
 1661              	.L135:
 302:bluetooth_rxtx.c **** 		*data_len = 1;
 1662              		.loc 1 302 0
 1663 0142 0520     		movs	r0, #5
 1664              	.LVL168:
 1665 0144 FFF7FEFF 		bl	cc2400_get
 1666              	.LVL169:
 1667 0148 00F00700 		and	r0, r0, #7
 1668 014c 2870     		strb	r0, [r5]
 1669 014e E6E1     		b	.L225
ARM GAS  /var/folders/s6/4bph2j8d1nvcsgz5bgm0yhx00000gn/T//ccF5ee78.s 			page 75


 1670              	.LVL170:
 1671              	.L136:
 307:bluetooth_rxtx.c **** 			cc2400_set(FREND, 8 | request_params[0]);
 1672              		.loc 1 307 0
 1673 0150 0988     		ldrh	r1, [r1]
 1674              	.LVL171:
 1675 0152 0729     		cmp	r1, #7
 1676 0154 00F27F82 		bhi	.L211
 308:bluetooth_rxtx.c **** 		} else {
 1677              		.loc 1 308 0
 1678 0158 0520     		movs	r0, #5
 1679              	.LVL172:
 1680 015a 41F00801 		orr	r1, r1, #8
 1681 015e F9E1     		b	.L236
 1682              	.LVL173:
 1683              	.L138:
 315:bluetooth_rxtx.c **** 		break;
 1684              		.loc 1 315 0
 1685 0160 0522     		movs	r2, #5
 1686              	.LVL174:
 1687 0162 EBE7     		b	.L233
 1688              	.LVL175:
 1689              	.L137:
 319:bluetooth_rxtx.c **** 		break;
 1690              		.loc 1 319 0
 1691 0164 0622     		movs	r2, #6
 1692              	.LVL176:
 1693 0166 E9E7     		b	.L233
 1694              	.LVL177:
 1695              	.L139:
 324:bluetooth_rxtx.c **** 		data[1] = rr.request_pa;
 1696              		.loc 1 324 0
 1697 0168 744B     		ldr	r3, .L257+28
 1698 016a 1A78     		ldrb	r2, [r3]	@ zero_extendqisi2
 1699              	.LVL178:
 1700 016c 2A70     		strb	r2, [r5]
 325:bluetooth_rxtx.c **** 		data[2] = rr.request_num;
 1701              		.loc 1 325 0
 1702 016e 5A78     		ldrb	r2, [r3, #1]	@ zero_extendqisi2
 1703 0170 6A70     		strb	r2, [r5, #1]
 326:bluetooth_rxtx.c **** 		data[3] = rr.reply_pa;
 1704              		.loc 1 326 0
 1705 0172 9A78     		ldrb	r2, [r3, #2]	@ zero_extendqisi2
 1706 0174 AA70     		strb	r2, [r5, #2]
 327:bluetooth_rxtx.c **** 		data[4] = rr.reply_num;
 1707              		.loc 1 327 0
 1708 0176 DA78     		ldrb	r2, [r3, #3]	@ zero_extendqisi2
 1709 0178 EA70     		strb	r2, [r5, #3]
 328:bluetooth_rxtx.c **** 		*data_len = 5;
 1710              		.loc 1 328 0
 1711 017a 1B79     		ldrb	r3, [r3, #4]	@ zero_extendqisi2
 1712 017c 2B71     		strb	r3, [r5, #4]
 329:bluetooth_rxtx.c **** 		break;
 1713              		.loc 1 329 0
 1714 017e 0523     		movs	r3, #5
 1715 0180 4BE0     		b	.L235
 1716              	.LVL179:
ARM GAS  /var/folders/s6/4bph2j8d1nvcsgz5bgm0yhx00000gn/T//ccF5ee78.s 			page 76


 1717              	.L129:
 333:bluetooth_rxtx.c **** 		break;
 1718              		.loc 1 333 0
 1719 0182 0022     		movs	r2, #0
 1720              	.LVL180:
 1721 0184 DAE7     		b	.L233
 1722              	.LVL181:
 1723              	.L130:
 337:bluetooth_rxtx.c **** 		*data_len = 1;
 1724              		.loc 1 337 0
 1725 0186 664B     		ldr	r3, .L257
 1726 0188 9CE0     		b	.L229
 1727              	.L131:
 342:bluetooth_rxtx.c **** 		break;
 1728              		.loc 1 342 0
 1729 018a 0A78     		ldrb	r2, [r1]	@ zero_extendqisi2
 1730              	.LVL182:
 1731 018c 644B     		ldr	r3, .L257
 1732 018e 1A70     		strb	r2, [r3]
 1733 0190 5FE2     		b	.L224
 1734              	.LVL183:
 1735              	.L119:
 346:bluetooth_rxtx.c **** 		data[1] = (channel >> 8) & 0xFF;
 1736              		.loc 1 346 0
 1737 0192 6B4B     		ldr	r3, .L257+32
 1738 0194 1A88     		ldrh	r2, [r3]
 1739              	.LVL184:
 1740 0196 2A70     		strb	r2, [r5]
 347:bluetooth_rxtx.c **** 		*data_len = 2;
 1741              		.loc 1 347 0
 1742 0198 1B88     		ldrh	r3, [r3]
 1743 019a C3F30723 		ubfx	r3, r3, #8, #8
 1744 019e A4E1     		b	.L254
 1745              	.LVL185:
 1746              	.L120:
 352:bluetooth_rxtx.c **** 		/* bluetooth band sweep mode, start at channel 2402 */
 1747              		.loc 1 352 0
 1748 01a0 0A88     		ldrh	r2, [r1]
 1749              	.LVL186:
 354:bluetooth_rxtx.c **** 			hop_mode = HOP_SWEEP;
 1750              		.loc 1 354 0
 1751 01a2 40F6EA21 		movw	r1, #2794
 1752              	.LVL187:
 352:bluetooth_rxtx.c **** 		/* bluetooth band sweep mode, start at channel 2402 */
 1753              		.loc 1 352 0
 1754 01a6 5E4B     		ldr	r3, .L257
 1755 01a8 DA81     		strh	r2, [r3, #14]	@ movhi
 354:bluetooth_rxtx.c **** 			hop_mode = HOP_SWEEP;
 1756              		.loc 1 354 0
 1757 01aa DA89     		ldrh	r2, [r3, #14]
 1758 01ac 92B2     		uxth	r2, r2
 1759 01ae 8A42     		cmp	r2, r1
 1760 01b0 04D9     		bls	.L183
 355:bluetooth_rxtx.c **** 			requested_channel = 2402;
 1761              		.loc 1 355 0
 1762 01b2 0122     		movs	r2, #1
 1763 01b4 9A72     		strb	r2, [r3, #10]
ARM GAS  /var/folders/s6/4bph2j8d1nvcsgz5bgm0yhx00000gn/T//ccF5ee78.s 			page 77


 356:bluetooth_rxtx.c **** 		}
 1764              		.loc 1 356 0
 1765 01b6 40F66212 		movw	r2, #2402
 1766 01ba 15E0     		b	.L186
 1767              	.L183:
 360:bluetooth_rxtx.c **** 			requested_channel = MAX(requested_channel, MIN_FREQ);
 1768              		.loc 1 360 0
 1769 01bc 0022     		movs	r2, #0
 1770 01be 9A72     		strb	r2, [r3, #10]
 361:bluetooth_rxtx.c **** 			requested_channel = MIN(requested_channel, MAX_FREQ);
 1771              		.loc 1 361 0
 1772 01c0 40F6DC02 		movw	r2, #2268
 1773 01c4 D989     		ldrh	r1, [r3, #14]
 1774 01c6 89B2     		uxth	r1, r1
 1775 01c8 9142     		cmp	r1, r2
 362:bluetooth_rxtx.c **** 		}
 1776              		.loc 1 362 0
 1777 01ca 40F6E921 		movw	r1, #2793
 361:bluetooth_rxtx.c **** 			requested_channel = MIN(requested_channel, MAX_FREQ);
 1778              		.loc 1 361 0
 1779 01ce 84BF     		itt	hi
 1780 01d0 DA89     		ldrhhi	r2, [r3, #14]
 1781 01d2 92B2     		uxthhi	r2, r2
 1782 01d4 DA81     		strh	r2, [r3, #14]	@ movhi
 362:bluetooth_rxtx.c **** 		}
 1783              		.loc 1 362 0
 1784 01d6 DA89     		ldrh	r2, [r3, #14]
 1785 01d8 92B2     		uxth	r2, r2
 1786 01da 8A42     		cmp	r2, r1
 1787 01dc 8FBF     		iteee	hi
 1788 01de 40F6EA22 		movwhi	r2, #2794
 1789 01e2 4F4A     		ldrls	r2, .L257
 1790 01e4 D289     		ldrhls	r2, [r2, #14]
 1791 01e6 92B2     		uxthls	r2, r2
 1792              	.L186:
 362:bluetooth_rxtx.c **** 		}
 1793              		.loc 1 362 0 is_stmt 0 discriminator 4
 1794 01e8 DA81     		strh	r2, [r3, #14]	@ movhi
 365:bluetooth_rxtx.c **** 		if (mode != MODE_BT_FOLLOW_LE && mode != MODE_BOSS_MASTER_LE) {
 1795              		.loc 1 365 0 is_stmt 1 discriminator 4
 1796 01ea D889     		ldrh	r0, [r3, #14]
 1797              	.LVL188:
 1798 01ec 544A     		ldr	r2, .L257+32
 1799 01ee 80B2     		uxth	r0, r0
 1800 01f0 A2F84A00 		strh	r0, [r2, #74]	@ movhi
 366:bluetooth_rxtx.c **** 			channel = requested_channel;
 1801              		.loc 1 366 0 discriminator 4
 1802 01f4 5B7C     		ldrb	r3, [r3, #17]	@ zero_extendqisi2
 365:bluetooth_rxtx.c **** 		if (mode != MODE_BT_FOLLOW_LE && mode != MODE_BOSS_MASTER_LE) {
 1803              		.loc 1 365 0 discriminator 4
 1804 01f6 4A49     		ldr	r1, .L257
 366:bluetooth_rxtx.c **** 			channel = requested_channel;
 1805              		.loc 1 366 0 discriminator 4
 1806 01f8 092B     		cmp	r3, #9
 1807 01fa 00F02A82 		beq	.L224
 366:bluetooth_rxtx.c **** 			channel = requested_channel;
 1808              		.loc 1 366 0 is_stmt 0 discriminator 1
ARM GAS  /var/folders/s6/4bph2j8d1nvcsgz5bgm0yhx00000gn/T//ccF5ee78.s 			page 78


 1809 01fe 4B7C     		ldrb	r3, [r1, #17]	@ zero_extendqisi2
 1810 0200 122B     		cmp	r3, #18
 1811 0202 00F02682 		beq	.L224
 367:bluetooth_rxtx.c **** 			requested_channel = 0;
 1812              		.loc 1 367 0 is_stmt 1
 1813 0206 CB89     		ldrh	r3, [r1, #14]
 1814 0208 9BB2     		uxth	r3, r3
 1815 020a 1380     		strh	r3, [r2]	@ movhi
 368:bluetooth_rxtx.c **** 
 1816              		.loc 1 368 0
 1817 020c 0023     		movs	r3, #0
 1818 020e CB81     		strh	r3, [r1, #14]	@ movhi
 372:bluetooth_rxtx.c **** 		}
 1819              		.loc 1 372 0
 1820 0210 1088     		ldrh	r0, [r2]
 1821 0212 91E1     		b	.L241
 1822              	.LVL189:
 1823              	.L132:
 377:bluetooth_rxtx.c **** 		*data_len = 0; /* should never return */
 1824              		.loc 1 377 0
 1825 0214 FFF7FEFF 		bl	set_isp
 1826              	.LVL190:
 1827              	.L238:
 378:bluetooth_rxtx.c **** 		break;
 1828              		.loc 1 378 0
 1829 0218 0023     		movs	r3, #0
 1830              	.LVL191:
 1831              	.L235:
 1832 021a 2360     		str	r3, [r4]
 1833 021c 19E2     		b	.L224
 1834              	.LVL192:
 1835              	.L133:
 382:bluetooth_rxtx.c **** 		requested_mode = MODE_RESET;
 1836              		.loc 1 382 0
 1837 021e 494A     		ldr	r2, .L257+36
 1838              	.LVL193:
 1839 0220 494B     		ldr	r3, .L257+40
 1840 0222 1A60     		str	r2, [r3]
 1841              	.L248:
 383:bluetooth_rxtx.c **** 		break;
 1842              		.loc 1 383 0
 1843 0224 0B22     		movs	r2, #11
 1844 0226 89E7     		b	.L233
 1845              	.LVL194:
 1846              	.L134:
 387:bluetooth_rxtx.c **** 				request_params[1] < 2049 || request_params[1] > 3072 ||
 1847              		.loc 1 387 0
 1848 0228 0A88     		ldrh	r2, [r1]
 1849              	.LVL195:
 1850 022a 6FF40060 		mvn	r0, #2048
 1851              	.LVL196:
 1852 022e 1318     		adds	r3, r2, r0
 1853 0230 B3F5806F 		cmp	r3, #1024
 1854 0234 80F00F82 		bcs	.L211
 388:bluetooth_rxtx.c **** 				request_params[1] < request_params[0])
 1855              		.loc 1 388 0 discriminator 1
 1856 0238 4B88     		ldrh	r3, [r1, #2]
ARM GAS  /var/folders/s6/4bph2j8d1nvcsgz5bgm0yhx00000gn/T//ccF5ee78.s 			page 79


 387:bluetooth_rxtx.c **** 				request_params[1] < 2049 || request_params[1] > 3072 ||
 1857              		.loc 1 387 0 discriminator 1
 1858 023a 6FF40061 		mvn	r1, #2048
 1859              	.LVL197:
 1860 023e 5918     		adds	r1, r3, r1
 1861 0240 B1F5806F 		cmp	r1, #1024
 1862 0244 80F00782 		bcs	.L211
 388:bluetooth_rxtx.c **** 				request_params[1] < request_params[0])
 1863              		.loc 1 388 0 discriminator 1
 1864 0248 9342     		cmp	r3, r2
 1865 024a C0F00482 		bcc	.L211
 391:bluetooth_rxtx.c **** 		high_freq = request_params[1];
 1866              		.loc 1 391 0
 1867 024e 3C49     		ldr	r1, .L257+32
 1868 0250 A1F84C20 		strh	r2, [r1, #76]	@ movhi
 392:bluetooth_rxtx.c **** 		requested_mode = MODE_SPECAN;
 1869              		.loc 1 392 0
 1870 0254 A1F84E30 		strh	r3, [r1, #78]	@ movhi
 393:bluetooth_rxtx.c **** 		*data_len = 0;
 1871              		.loc 1 393 0
 1872 0258 0422     		movs	r2, #4
 1873 025a A8E1     		b	.L250
 1874              	.LVL198:
 1875              	.L172:
 398:bluetooth_rxtx.c **** 		*data_len = 0;
 1876              		.loc 1 398 0
 1877 025c 0F22     		movs	r2, #15
 1878              	.LVL199:
 1879 025e A6E1     		b	.L250
 1880              	.LVL200:
 1881              	.L141:
 403:bluetooth_rxtx.c **** 			return 0;
 1882              		.loc 1 403 0
 1883 0260 0B88     		ldrh	r3, [r1]
 1884 0262 B3F5807F 		cmp	r3, #256
 1885 0266 00F2F681 		bhi	.L211
 405:bluetooth_rxtx.c **** 		requested_mode = MODE_LED_SPECAN;
 1886              		.loc 1 405 0
 1887 026a 354A     		ldr	r2, .L257+32
 1888              	.LVL201:
 1889 026c C3F13603 		rsb	r3, r3, #54
 1890 0270 DBB2     		uxtb	r3, r3
 1891 0272 82F85030 		strb	r3, [r2, #80]
 406:bluetooth_rxtx.c **** 		*data_len = 0;
 1892              		.loc 1 406 0
 1893 0276 0722     		movs	r2, #7
 1894 0278 99E1     		b	.L250
 1895              	.LVL202:
 1896              	.L140:
 411:bluetooth_rxtx.c **** 		data[1] = 0x00;
 1897              		.loc 1 411 0
 1898 027a 0023     		movs	r3, #0
 1899 027c 1370     		strb	r3, [r2]
 412:bluetooth_rxtx.c **** 
 1900              		.loc 1 412 0
 1901 027e 5370     		strb	r3, [r2, #1]
 414:bluetooth_rxtx.c **** 		data[2] = length;
ARM GAS  /var/folders/s6/4bph2j8d1nvcsgz5bgm0yhx00000gn/T//ccF5ee78.s 			page 80


 1902              		.loc 1 414 0
 1903 0280 3248     		ldr	r0, .L257+44
 1904              	.LVL203:
 1905 0282 FFF7FEFF 		bl	strlen
 1906              	.LVL204:
 1907 0286 C6B2     		uxtb	r6, r0
 1908              	.LVL205:
 415:bluetooth_rxtx.c **** 
 1909              		.loc 1 415 0
 1910 0288 AE70     		strb	r6, [r5, #2]
 417:bluetooth_rxtx.c **** 
 1911              		.loc 1 417 0
 1912 028a 3246     		mov	r2, r6
 1913 028c E81C     		adds	r0, r5, #3
 1914 028e 2F49     		ldr	r1, .L257+44
 1915 0290 FFF7FEFF 		bl	memcpy
 1916              	.LVL206:
 419:bluetooth_rxtx.c **** 		break;
 1917              		.loc 1 419 0
 1918 0294 0336     		adds	r6, r6, #3
 1919              	.LVL207:
 1920 0296 0BE0     		b	.L242
 1921              	.LVL208:
 1922              	.L162:
 423:bluetooth_rxtx.c **** 		data[0] = length;
 1923              		.loc 1 423 0
 1924 0298 2D48     		ldr	r0, .L257+48
 1925              	.LVL209:
 1926 029a FFF7FEFF 		bl	strlen
 1927              	.LVL210:
 1928 029e C6B2     		uxtb	r6, r0
 1929              	.LVL211:
 424:bluetooth_rxtx.c **** 		memcpy(&data[1], compile_info, length);
 1930              		.loc 1 424 0
 1931 02a0 2846     		mov	r0, r5
 425:bluetooth_rxtx.c **** 		*data_len = 1 + length;
 1932              		.loc 1 425 0
 1933 02a2 3246     		mov	r2, r6
 424:bluetooth_rxtx.c **** 		memcpy(&data[1], compile_info, length);
 1934              		.loc 1 424 0
 1935 02a4 00F8016B 		strb	r6, [r0], #1
 425:bluetooth_rxtx.c **** 		*data_len = 1 + length;
 1936              		.loc 1 425 0
 1937 02a8 2949     		ldr	r1, .L257+48
 1938 02aa FFF7FEFF 		bl	memcpy
 1939              	.LVL212:
 426:bluetooth_rxtx.c **** 		break;
 1940              		.loc 1 426 0
 1941 02ae 0136     		adds	r6, r6, #1
 1942              	.LVL213:
 1943              	.L242:
 1944 02b0 2660     		str	r6, [r4]
 1945 02b2 CEE1     		b	.L224
 1946              	.LVL214:
 1947              	.L142:
 430:bluetooth_rxtx.c **** 		*data_len = 1;
 1948              		.loc 1 430 0
ARM GAS  /var/folders/s6/4bph2j8d1nvcsgz5bgm0yhx00000gn/T//ccF5ee78.s 			page 81


 1949 02b4 0120     		movs	r0, #1
 1950              	.LVL215:
 1951 02b6 1070     		strb	r0, [r2]
 1952 02b8 32E1     		b	.L226
 1953              	.LVL216:
 1954              	.L143:
 435:bluetooth_rxtx.c **** 		cs_threshold_calc_and_set(channel);
 1955              		.loc 1 435 0
 1956 02ba 0A88     		ldrh	r2, [r1]
 1957              	.LVL217:
 1958 02bc 254B     		ldr	r3, .L257+52
 1959 02be 1A70     		strb	r2, [r3]
 1960 02c0 38E1     		b	.L240
 1961              	.LVL218:
 1962              	.L144:
 440:bluetooth_rxtx.c **** 		*data_len = 1;
 1963              		.loc 1 440 0
 1964 02c2 244B     		ldr	r3, .L257+52
 1965              	.L229:
 1966 02c4 1B78     		ldrb	r3, [r3]	@ zero_extendqisi2
 1967              	.L230:
 1968 02c6 2B70     		strb	r3, [r5]
 1969 02c8 29E1     		b	.L225
 1970              	.L145:
 445:bluetooth_rxtx.c **** 		target.syncword = 0;
 1971              		.loc 1 445 0
 1972 02ca 234C     		ldr	r4, .L257+56
 1973              	.LVL219:
 1974 02cc 0022     		movs	r2, #0
 1975              	.LVL220:
 1976 02ce 0023     		movs	r3, #0
 1977 02d0 C4E90023 		strd	r2, [r4]
 446:bluetooth_rxtx.c **** 		for(int i=0; i < 8; i++) {
 1978              		.loc 1 446 0
 1979 02d4 C4E90223 		strd	r2, [r4, #8]
 1980              	.LVL221:
 1981              	.LBB17:
 447:bluetooth_rxtx.c **** 			target.address |= (uint64_t)data[i] << 8*i;
 1982              		.loc 1 447 0
 1983 02d8 0026     		movs	r6, #0
 1984              	.LVL222:
 1985              	.L189:
 448:bluetooth_rxtx.c **** 		}
 1986              		.loc 1 448 0 discriminator 3
 1987 02da A85D     		ldrb	r0, [r5, r6]	@ zero_extendqisi2
 1988 02dc F200     		lsls	r2, r6, #3
 1989 02de 0021     		movs	r1, #0
 1990 02e0 FFF7FEFF 		bl	__aeabi_llsl
 1991              	.LVL223:
 1992 02e4 D4E90023 		ldrd	r2, [r4]
 447:bluetooth_rxtx.c **** 			target.address |= (uint64_t)data[i] << 8*i;
 1993              		.loc 1 447 0 discriminator 3
 1994 02e8 0136     		adds	r6, r6, #1
 1995              	.LVL224:
 448:bluetooth_rxtx.c **** 		}
 1996              		.loc 1 448 0 discriminator 3
 1997 02ea 1043     		orrs	r0, r0, r2
ARM GAS  /var/folders/s6/4bph2j8d1nvcsgz5bgm0yhx00000gn/T//ccF5ee78.s 			page 82


 1998 02ec 1943     		orrs	r1, r1, r3
 447:bluetooth_rxtx.c **** 			target.address |= (uint64_t)data[i] << 8*i;
 1999              		.loc 1 447 0 discriminator 3
 2000 02ee 082E     		cmp	r6, #8
 448:bluetooth_rxtx.c **** 		}
 2001              		.loc 1 448 0 discriminator 3
 2002 02f0 C4E90001 		strd	r0, [r4]
 447:bluetooth_rxtx.c **** 			target.address |= (uint64_t)data[i] << 8*i;
 2003              		.loc 1 447 0 discriminator 3
 2004 02f4 F1D1     		bne	.L189
 2005 02f6 0735     		adds	r5, r5, #7
 2006              	.LVL225:
 447:bluetooth_rxtx.c **** 			target.address |= (uint64_t)data[i] << 8*i;
 2007              		.loc 1 447 0 is_stmt 0
 2008 02f8 0026     		movs	r6, #0
 2009              	.LVL226:
 2010              	.L190:
 2011              	.LBE17:
 2012              	.LBB18:
 451:bluetooth_rxtx.c **** 		}
 2013              		.loc 1 451 0 is_stmt 1 discriminator 3
 2014 02fa F200     		lsls	r2, r6, #3
 2015 02fc 15F8010F 		ldrb	r0, [r5, #1]!	@ zero_extendqisi2
 2016 0300 0021     		movs	r1, #0
 2017 0302 FFF7FEFF 		bl	__aeabi_llsl
 2018              	.LVL227:
 2019 0306 D4E90223 		ldrd	r2, [r4, #8]
 450:bluetooth_rxtx.c **** 			target.syncword |= (uint64_t)data[i+8] << 8*i;
 2020              		.loc 1 450 0 discriminator 3
 2021 030a 0136     		adds	r6, r6, #1
 2022              	.LVL228:
 451:bluetooth_rxtx.c **** 		}
 2023              		.loc 1 451 0 discriminator 3
 2024 030c 1043     		orrs	r0, r0, r2
 2025 030e 1943     		orrs	r1, r1, r3
 450:bluetooth_rxtx.c **** 			target.syncword |= (uint64_t)data[i+8] << 8*i;
 2026              		.loc 1 450 0 discriminator 3
 2027 0310 082E     		cmp	r6, #8
 451:bluetooth_rxtx.c **** 		}
 2028              		.loc 1 451 0 discriminator 3
 2029 0312 C4E90201 		strd	r0, [r4, #8]
 450:bluetooth_rxtx.c **** 			target.syncword |= (uint64_t)data[i+8] << 8*i;
 2030              		.loc 1 450 0 discriminator 3
 2031 0316 F0D1     		bne	.L190
 2032              	.LBE18:
 453:bluetooth_rxtx.c **** 		break;
 2033              		.loc 1 453 0
 2034 0318 FFF7FEFF 		bl	precalc
 2035              	.LVL229:
 2036 031c 99E1     		b	.L224
 2037              	.L258:
 2038 031e 00BF     		.align	2
 2039              	.L257:
 2040 0320 00000000 		.word	.LANCHOR0
 2041 0324 34C00920 		.word	537509940
 2042 0328 38C00920 		.word	537509944
 2043 032c 3CC00920 		.word	537509948
ARM GAS  /var/folders/s6/4bph2j8d1nvcsgz5bgm0yhx00000gn/T//ccF5ee78.s 			page 83


 2044 0330 54C00920 		.word	537509972
 2045 0334 58C00920 		.word	537509976
 2046 0338 5CC00920 		.word	537509980
 2047 033c 00000000 		.word	rr
 2048 0340 00000000 		.word	.LANCHOR1
 2049 0344 21BB0543 		.word	1124449057
 2050 0348 00000000 		.word	bootloader_ctrl
 2051 034c 00000000 		.word	.LC3
 2052 0350 A7000000 		.word	.LANCHOR2+167
 2053 0354 00000000 		.word	cs_threshold_req
 2054 0358 00000000 		.word	target
 2055              	.LVL230:
 2056              	.L146:
 457:bluetooth_rxtx.c **** 		for(int i=0; i < 4; i++) {
 2057              		.loc 1 457 0
 2058 035c AC4B     		ldr	r3, .L259
 2059 035e 0022     		movs	r2, #0
 2060              	.LVL231:
 2061 0360 1A60     		str	r2, [r3]
 2062              	.LVL232:
 2063 0362 E81C     		adds	r0, r5, #3
 2064              	.LVL233:
 2065 0364 6A1E     		subs	r2, r5, #1
 2066              	.LVL234:
 2067              	.L191:
 2068              	.LBB19:
 459:bluetooth_rxtx.c **** 			clkn_offset |= data[i];
 2069              		.loc 1 459 0 discriminator 3
 2070 0366 1968     		ldr	r1, [r3]
 2071 0368 0902     		lsls	r1, r1, #8
 2072 036a 1960     		str	r1, [r3]
 460:bluetooth_rxtx.c **** 		}
 2073              		.loc 1 460 0 discriminator 3
 2074 036c 12F8014F 		ldrb	r4, [r2, #1]!	@ zero_extendqisi2
 2075 0370 1968     		ldr	r1, [r3]
 458:bluetooth_rxtx.c **** 			clkn_offset <<= 8;
 2076              		.loc 1 458 0 discriminator 3
 2077 0372 8242     		cmp	r2, r0
 460:bluetooth_rxtx.c **** 		}
 2078              		.loc 1 460 0 discriminator 3
 2079 0374 41EA0401 		orr	r1, r1, r4
 2080 0378 1960     		str	r1, [r3]
 458:bluetooth_rxtx.c **** 			clkn_offset <<= 8;
 2081              		.loc 1 458 0 discriminator 3
 2082 037a F4D1     		bne	.L191
 2083              	.LBE19:
 462:bluetooth_rxtx.c **** 		dma_discard = 1;
 2084              		.loc 1 462 0
 2085 037c A54B     		ldr	r3, .L259+4
 2086 037e 0222     		movs	r2, #2
 2087 0380 9A72     		strb	r2, [r3, #10]
 464:bluetooth_rxtx.c **** 		clk100ns_offset = (data[4] << 8) | (data[5] << 0);
 2088              		.loc 1 464 0
 2089 0382 A54A     		ldr	r2, .L259+8
 463:bluetooth_rxtx.c **** 		DIO_SSEL_SET;
 2090              		.loc 1 463 0
 2091 0384 0120     		movs	r0, #1
ARM GAS  /var/folders/s6/4bph2j8d1nvcsgz5bgm0yhx00000gn/T//ccF5ee78.s 			page 84


 464:bluetooth_rxtx.c **** 		clk100ns_offset = (data[4] << 8) | (data[5] << 0);
 2092              		.loc 1 464 0
 2093 0386 4FF08051 		mov	r1, #268435456
 463:bluetooth_rxtx.c **** 		DIO_SSEL_SET;
 2094              		.loc 1 463 0
 2095 038a 1874     		strb	r0, [r3, #16]
 464:bluetooth_rxtx.c **** 		clk100ns_offset = (data[4] << 8) | (data[5] << 0);
 2096              		.loc 1 464 0
 2097 038c 1160     		str	r1, [r2]
 465:bluetooth_rxtx.c **** 		requested_mode = MODE_BT_FOLLOW;
 2098              		.loc 1 465 0
 2099 038e 2979     		ldrb	r1, [r5, #4]	@ zero_extendqisi2
 2100 0390 6A79     		ldrb	r2, [r5, #5]	@ zero_extendqisi2
 2101 0392 42EA0122 		orr	r2, r2, r1, lsl #8
 2102 0396 A149     		ldr	r1, .L259+12
 2103 0398 0A80     		strh	r2, [r1]	@ movhi
 466:bluetooth_rxtx.c **** 		break;
 2104              		.loc 1 466 0
 2105 039a 0822     		movs	r2, #8
 2106 039c 9A74     		strb	r2, [r3, #18]
 467:bluetooth_rxtx.c **** 
 2107              		.loc 1 467 0
 2108 039e F8BD     		pop	{r3, r4, r5, r6, r7, pc}
 2109              	.LVL235:
 2110              	.L167:
 470:bluetooth_rxtx.c **** 		requested_mode = MODE_AFH;
 2111              		.loc 1 470 0
 2112 03a0 9C4B     		ldr	r3, .L259+4
 2113 03a2 0522     		movs	r2, #5
 2114              	.LVL236:
 2115 03a4 9A72     		strb	r2, [r3, #10]
 471:bluetooth_rxtx.c **** 
 2116              		.loc 1 471 0
 2117 03a6 0E22     		movs	r2, #14
 2118 03a8 9A74     		strb	r2, [r3, #18]
 2119              	.LVL237:
 2120              	.LBB20:
 473:bluetooth_rxtx.c **** 			afh_map[i] = 0;
 2121              		.loc 1 473 0
 2122 03aa 0023     		movs	r3, #0
 2123              	.LVL238:
 2124              	.L192:
 474:bluetooth_rxtx.c **** 		}
 2125              		.loc 1 474 0 discriminator 3
 2126 03ac 9C49     		ldr	r1, .L259+16
 2127 03ae 0022     		movs	r2, #0
 2128 03b0 5A54     		strb	r2, [r3, r1]
 473:bluetooth_rxtx.c **** 			afh_map[i] = 0;
 2129              		.loc 1 473 0 discriminator 3
 2130 03b2 0133     		adds	r3, r3, #1
 2131              	.LVL239:
 2132 03b4 0A2B     		cmp	r3, #10
 2133 03b6 F9D1     		bne	.L192
 2134              	.LBE20:
 476:bluetooth_rxtx.c **** 		afh_enabled = 1;
 2135              		.loc 1 476 0
 2136 03b8 9A4B     		ldr	r3, .L259+20
ARM GAS  /var/folders/s6/4bph2j8d1nvcsgz5bgm0yhx00000gn/T//ccF5ee78.s 			page 85


 2137              	.LVL240:
 477:bluetooth_rxtx.c **** 		break;
 2138              		.loc 1 477 0
 2139 03ba 0120     		movs	r0, #1
 2140              	.LVL241:
 476:bluetooth_rxtx.c **** 		afh_enabled = 1;
 2141              		.loc 1 476 0
 2142 03bc 1A70     		strb	r2, [r3]
 477:bluetooth_rxtx.c **** 		break;
 2143              		.loc 1 477 0
 2144 03be 9A4B     		ldr	r3, .L259+24
 2145 03c0 1870     		strb	r0, [r3]
 478:bluetooth_rxtx.c **** 
 2146              		.loc 1 478 0
 2147 03c2 F8BD     		pop	{r3, r4, r5, r6, r7, pc}
 2148              	.LVL242:
 2149              	.L168:
 481:bluetooth_rxtx.c **** 		break;
 2150              		.loc 1 481 0
 2151 03c4 934B     		ldr	r3, .L259+4
 2152 03c6 0120     		movs	r0, #1
 2153              	.LVL243:
 2154 03c8 D872     		strb	r0, [r3, #11]
 482:bluetooth_rxtx.c **** 
 2155              		.loc 1 482 0
 2156 03ca F8BD     		pop	{r3, r4, r5, r6, r7, pc}
 2157              	.LVL244:
 2158              	.L147:
 485:bluetooth_rxtx.c **** 		clkn = clock;
 2159              		.loc 1 485 0
 2160 03cc AB78     		ldrb	r3, [r5, #2]	@ zero_extendqisi2
 2161 03ce 5278     		ldrb	r2, [r2, #1]	@ zero_extendqisi2
 2162              	.LVL245:
 2163 03d0 1B04     		lsls	r3, r3, #16
 2164 03d2 43EA0223 		orr	r3, r3, r2, lsl #8
 2165 03d6 2A78     		ldrb	r2, [r5]	@ zero_extendqisi2
 2166 03d8 1343     		orrs	r3, r3, r2
 2167 03da EA78     		ldrb	r2, [r5, #3]	@ zero_extendqisi2
 2168 03dc 43EA0263 		orr	r3, r3, r2, lsl #24
 2169              	.LVL246:
 486:bluetooth_rxtx.c **** 		cs_threshold_calc_and_set(channel);
 2170              		.loc 1 486 0
 2171 03e0 924A     		ldr	r2, .L259+28
 2172 03e2 1360     		str	r3, [r2]
 2173 03e4 A6E0     		b	.L240
 2174              	.LVL247:
 2175              	.L202:
 193:bluetooth_rxtx.c **** 
 2176              		.loc 1 193 0
 2177 03e6 0023     		movs	r3, #0
 2178              	.LVL248:
 2179              	.L158:
 2180              	.LBB21:
 492:bluetooth_rxtx.c **** 		}
 2181              		.loc 1 492 0 discriminator 3
 2182 03e8 E95C     		ldrb	r1, [r5, r3]	@ zero_extendqisi2
 2183 03ea 8D4A     		ldr	r2, .L259+16
ARM GAS  /var/folders/s6/4bph2j8d1nvcsgz5bgm0yhx00000gn/T//ccF5ee78.s 			page 86


 2184 03ec 9954     		strb	r1, [r3, r2]
 491:bluetooth_rxtx.c **** 			afh_map[i] = data[i];
 2185              		.loc 1 491 0 discriminator 3
 2186 03ee 0133     		adds	r3, r3, #1
 2187              	.LVL249:
 2188 03f0 0A2B     		cmp	r3, #10
 2189 03f2 F9D1     		bne	.L158
 2190              	.LBE21:
 494:bluetooth_rxtx.c **** 		*data_len = 10;
 2191              		.loc 1 494 0
 2192 03f4 8C4A     		ldr	r2, .L259+24
 2193 03f6 0120     		movs	r0, #1
 2194              	.LVL250:
 2195 03f8 1070     		strb	r0, [r2]
 2196              	.LVL251:
 2197              	.L228:
 495:bluetooth_rxtx.c **** 		break;
 2198              		.loc 1 495 0
 2199 03fa 2360     		str	r3, [r4]
 496:bluetooth_rxtx.c **** 
 2200              		.loc 1 496 0
 2201 03fc F8BD     		pop	{r3, r4, r5, r6, r7, pc}
 2202              	.LVL252:
 2203              	.L203:
 193:bluetooth_rxtx.c **** 
 2204              		.loc 1 193 0
 2205 03fe 0023     		movs	r3, #0
 2206              	.LVL253:
 2207              	.L159:
 2208              	.LBB22:
 500:bluetooth_rxtx.c **** 		}
 2209              		.loc 1 500 0 discriminator 3
 2210 0400 8749     		ldr	r1, .L259+16
 2211 0402 0022     		movs	r2, #0
 2212 0404 5A54     		strb	r2, [r3, r1]
 499:bluetooth_rxtx.c **** 			afh_map[i] = 0;
 2213              		.loc 1 499 0 discriminator 3
 2214 0406 0133     		adds	r3, r3, #1
 2215              	.LVL254:
 2216 0408 0A2B     		cmp	r3, #10
 2217 040a F9D1     		bne	.L159
 2218              	.LBE22:
 502:bluetooth_rxtx.c **** 		*data_len = 10;
 2219              		.loc 1 502 0
 2220 040c 8649     		ldr	r1, .L259+24
 2221 040e 0A70     		strb	r2, [r1]
 2222 0410 03E7     		b	.L235
 2223              	.LVL255:
 2224              	.L148:
 507:bluetooth_rxtx.c **** 		for(int i=0; i < 4; i++) {
 2225              		.loc 1 507 0
 2226 0412 864B     		ldr	r3, .L259+28
 2227 0414 1968     		ldr	r1, [r3]
 2228              	.LVL256:
 2229              	.LBB23:
 508:bluetooth_rxtx.c **** 			data[i] = (clock >> (8*i)) & 0xff;
 2230              		.loc 1 508 0
ARM GAS  /var/folders/s6/4bph2j8d1nvcsgz5bgm0yhx00000gn/T//ccF5ee78.s 			page 87


 2231 0416 0023     		movs	r3, #0
 2232              	.LVL257:
 2233              	.L193:
 2234 0418 DA00     		lsls	r2, r3, #3
 509:bluetooth_rxtx.c **** 		}
 2235              		.loc 1 509 0 discriminator 3
 2236 041a 21FA02F2 		lsr	r2, r1, r2
 2237 041e EA54     		strb	r2, [r5, r3]
 508:bluetooth_rxtx.c **** 			data[i] = (clock >> (8*i)) & 0xff;
 2238              		.loc 1 508 0 discriminator 3
 2239 0420 0133     		adds	r3, r3, #1
 2240              	.LVL258:
 2241 0422 042B     		cmp	r3, #4
 2242 0424 F8D1     		bne	.L193
 2243              	.LVL259:
 2244              	.L196:
 2245              	.LBE23:
 511:bluetooth_rxtx.c **** 		break;
 2246              		.loc 1 511 0
 2247 0426 0423     		movs	r3, #4
 2248 0428 F7E6     		b	.L235
 2249              	.LVL260:
 2250              	.L169:
 515:bluetooth_rxtx.c **** 		break;
 2251              		.loc 1 515 0
 2252 042a 1278     		ldrb	r2, [r2]	@ zero_extendqisi2
 2253              	.LVL261:
 2254 042c 6B78     		ldrb	r3, [r5, #1]	@ zero_extendqisi2
 2255 042e 43EA0223 		orr	r3, r3, r2, lsl #8
 2256 0432 7A4A     		ldr	r2, .L259+12
 2257 0434 1380     		strh	r3, [r2]	@ movhi
 2258 0436 0CE1     		b	.L224
 2259              	.LVL262:
 2260              	.L174:
 519:bluetooth_rxtx.c **** 
 2261              		.loc 1 519 0
 2262 0438 7D4B     		ldr	r3, .L259+32
 2263 043a 1078     		ldrb	r0, [r2]	@ zero_extendqisi2
 2264              	.LVL263:
 2265 043c 5278     		ldrb	r2, [r2, #1]	@ zero_extendqisi2
 2266              	.LVL264:
 2267 043e 1988     		ldrh	r1, [r3]
 2268              	.LVL265:
 2269 0440 42EA0022 		orr	r2, r2, r0, lsl #8
 2270 0444 0A44     		add	r2, r2, r1
 2271 0446 92B2     		uxth	r2, r2
 2272 0448 1A80     		strh	r2, [r3]	@ movhi
 522:bluetooth_rxtx.c **** 			clk_drift_correction = 320 / (uint16_t)(-clk_drift_ppm);
 2273              		.loc 1 522 0
 2274 044a 1A88     		ldrh	r2, [r3]
 2275 044c 7948     		ldr	r0, .L259+36
 2276 044e 12B2     		sxth	r2, r2
 2277 0450 002A     		cmp	r2, #0
 2278 0452 794A     		ldr	r2, .L259+40
 2279 0454 07DA     		bge	.L194
 523:bluetooth_rxtx.c **** 			clkn_next_drift_fix = clkn_last_drift_fix + clk_drift_correction;
 2280              		.loc 1 523 0
ARM GAS  /var/folders/s6/4bph2j8d1nvcsgz5bgm0yhx00000gn/T//ccF5ee78.s 			page 88


 2281 0456 1B88     		ldrh	r3, [r3]
 2282 0458 4FF4A071 		mov	r1, #320
 2283 045c 5B42     		negs	r3, r3
 2284 045e 9BB2     		uxth	r3, r3
 2285 0460 91FBF3F3 		sdiv	r3, r1, r3
 2286 0464 0AE0     		b	.L253
 2287              	.L194:
 527:bluetooth_rxtx.c **** 			clk_drift_correction = 320 / clk_drift_ppm;
 2288              		.loc 1 527 0
 2289 0466 1988     		ldrh	r1, [r3]
 2290 0468 09B2     		sxth	r1, r1
 2291 046a 0029     		cmp	r1, #0
 2292 046c 0DDD     		ble	.L195
 528:bluetooth_rxtx.c **** 			clkn_next_drift_fix = clkn_last_drift_fix + clk_drift_correction;
 2293              		.loc 1 528 0
 2294 046e 1B88     		ldrh	r3, [r3]
 2295 0470 4FF4A071 		mov	r1, #320
 2296 0474 1BB2     		sxth	r3, r3
 2297 0476 91FBF3F3 		sdiv	r3, r1, r3
 2298 047a 9BB2     		uxth	r3, r3
 2299              	.L253:
 2300 047c 1380     		strh	r3, [r2]	@ movhi
 529:bluetooth_rxtx.c **** 		}
 2301              		.loc 1 529 0
 2302 047e 6F4B     		ldr	r3, .L259+44
 2303 0480 1968     		ldr	r1, [r3]
 2304 0482 1388     		ldrh	r3, [r2]
 2305 0484 9BB2     		uxth	r3, r3
 2306 0486 0B44     		add	r3, r3, r1
 2307 0488 01E0     		b	.L234
 2308              	.L195:
 533:bluetooth_rxtx.c **** 			clkn_next_drift_fix = 0;
 2309              		.loc 1 533 0
 2310 048a 0023     		movs	r3, #0
 2311 048c 1380     		strh	r3, [r2]	@ movhi
 2312              	.L234:
 534:bluetooth_rxtx.c **** 		}
 2313              		.loc 1 534 0
 2314 048e 0360     		str	r3, [r0]
 2315 0490 DFE0     		b	.L224
 2316              	.LVL266:
 2317              	.L149:
 542:bluetooth_rxtx.c **** 		hop_mode = HOP_BTLE;
 2318              		.loc 1 542 0
 2319 0492 604B     		ldr	r3, .L259+4
 540:bluetooth_rxtx.c **** 
 2320              		.loc 1 540 0
 2321 0494 0022     		movs	r2, #0
 2322              	.LVL267:
 2323 0496 2260     		str	r2, [r4]
 542:bluetooth_rxtx.c **** 		hop_mode = HOP_BTLE;
 2324              		.loc 1 542 0
 2325 0498 DA72     		strb	r2, [r3, #11]
 543:bluetooth_rxtx.c **** 		requested_mode = MODE_BT_FOLLOW_LE;
 2326              		.loc 1 543 0
 2327 049a 0322     		movs	r2, #3
 2328 049c 9A72     		strb	r2, [r3, #10]
ARM GAS  /var/folders/s6/4bph2j8d1nvcsgz5bgm0yhx00000gn/T//ccF5ee78.s 			page 89


 544:bluetooth_rxtx.c **** 
 2329              		.loc 1 544 0
 2330 049e 0922     		movs	r2, #9
 2331 04a0 45E0     		b	.L239
 2332              	.LVL268:
 2333              	.L176:
 553:bluetooth_rxtx.c **** 		hop_mode = HOP_BTLE;
 2334              		.loc 1 553 0
 2335 04a2 5C4B     		ldr	r3, .L259+4
 551:bluetooth_rxtx.c **** 
 2336              		.loc 1 551 0
 2337 04a4 0022     		movs	r2, #0
 2338              	.LVL269:
 2339 04a6 2260     		str	r2, [r4]
 553:bluetooth_rxtx.c **** 		hop_mode = HOP_BTLE;
 2340              		.loc 1 553 0
 2341 04a8 DA72     		strb	r2, [r3, #11]
 554:bluetooth_rxtx.c **** 		requested_mode = MODE_BOSS_MASTER_LE;
 2342              		.loc 1 554 0
 2343 04aa 0322     		movs	r2, #3
 2344 04ac 9A72     		strb	r2, [r3, #10]
 555:bluetooth_rxtx.c **** 
 2345              		.loc 1 555 0
 2346 04ae 1222     		movs	r2, #18
 2347 04b0 3DE0     		b	.L239
 2348              	.LVL270:
 2349              	.L201:
 193:bluetooth_rxtx.c **** 
 2350              		.loc 1 193 0
 2351 04b2 0023     		movs	r3, #0
 2352              	.LVL271:
 2353              	.L150:
 2354              	.LBB24:
 563:bluetooth_rxtx.c **** 		}
 2355              		.loc 1 563 0 discriminator 3
 2356 04b4 624A     		ldr	r2, .L259+48
 2357 04b6 D900     		lsls	r1, r3, #3
 2358 04b8 5268     		ldr	r2, [r2, #4]
 2359 04ba CA40     		lsrs	r2, r2, r1
 2360 04bc EA54     		strb	r2, [r5, r3]
 562:bluetooth_rxtx.c **** 			data[i] = (le.access_address >> (8*i)) & 0xff;
 2361              		.loc 1 562 0 discriminator 3
 2362 04be 0133     		adds	r3, r3, #1
 2363              	.LVL272:
 2364 04c0 042B     		cmp	r3, #4
 2365 04c2 F7D1     		bne	.L150
 2366 04c4 AFE7     		b	.L196
 2367              	.LVL273:
 2368              	.L151:
 2369              	.LBE24:
 569:bluetooth_rxtx.c **** 		le.target_set = 1;
 2370              		.loc 1 569 0
 2371 04c6 9378     		ldrb	r3, [r2, #2]	@ zero_extendqisi2
 2372 04c8 5078     		ldrb	r0, [r2, #1]	@ zero_extendqisi2
 2373              	.LVL274:
 2374 04ca 1B04     		lsls	r3, r3, #16
 2375 04cc 43EA0023 		orr	r3, r3, r0, lsl #8
ARM GAS  /var/folders/s6/4bph2j8d1nvcsgz5bgm0yhx00000gn/T//ccF5ee78.s 			page 90


 2376 04d0 1078     		ldrb	r0, [r2]	@ zero_extendqisi2
 2377 04d2 0343     		orrs	r3, r3, r0
 2378 04d4 D078     		ldrb	r0, [r2, #3]	@ zero_extendqisi2
 2379 04d6 43EA0060 		orr	r0, r3, r0, lsl #24
 2380 04da FFF7FEFF 		bl	le_set_access_address
 2381              	.LVL275:
 570:bluetooth_rxtx.c **** 		break;
 2382              		.loc 1 570 0
 2383 04de 0120     		movs	r0, #1
 2384 04e0 574B     		ldr	r3, .L259+48
 2385 04e2 8EE0     		b	.L227
 2386              	.LVL276:
 2387              	.L153:
 580:bluetooth_rxtx.c **** 		data[1] = 0x37;
 2388              		.loc 1 580 0
 2389 04e4 1323     		movs	r3, #19
 2390 04e6 1370     		strb	r3, [r2]
 581:bluetooth_rxtx.c **** 		*data_len = 2;
 2391              		.loc 1 581 0
 2392 04e8 3723     		movs	r3, #55
 2393              	.LVL277:
 2394              	.L254:
 2395 04ea 6B70     		strb	r3, [r5, #1]
 2396 04ec 2EE0     		b	.L251
 2397              	.LVL278:
 2398              	.L154:
 586:bluetooth_rxtx.c **** 		*data_len = 1;
 2399              		.loc 1 586 0
 2400 04ee 544B     		ldr	r3, .L259+48
 2401 04f0 5B69     		ldr	r3, [r3, #20]
 2402 04f2 0033     		adds	r3, r3, #0
 2403 04f4 18BF     		it	ne
 2404 04f6 0123     		movne	r3, #1
 2405 04f8 E5E6     		b	.L230
 2406              	.L155:
 591:bluetooth_rxtx.c **** 		break;
 2407              		.loc 1 591 0
 2408 04fa 0B88     		ldrh	r3, [r1]
 2409 04fc 504A     		ldr	r2, .L259+48
 2410              	.LVL279:
 2411 04fe 0033     		adds	r3, r3, #0
 2412 0500 18BF     		it	ne
 2413 0502 0123     		movne	r3, #1
 2414 0504 5361     		str	r3, [r2, #20]
 2415 0506 A4E0     		b	.L224
 2416              	.LVL280:
 2417              	.L156:
 595:bluetooth_rxtx.c **** 		if (p != NULL) {
 2418              		.loc 1 595 0
 2419 0508 FFF7FEFF 		bl	dequeue
 2420              	.LVL281:
 596:bluetooth_rxtx.c **** 			memcpy(data, (void *)p, sizeof(usb_pkt_rx));
 2421              		.loc 1 596 0
 2422 050c 0146     		mov	r1, r0
 2423 050e 28B1     		cbz	r0, .L197
 597:bluetooth_rxtx.c **** 			*data_len = sizeof(usb_pkt_rx);
 2424              		.loc 1 597 0
ARM GAS  /var/folders/s6/4bph2j8d1nvcsgz5bgm0yhx00000gn/T//ccF5ee78.s 			page 91


 2425 0510 2846     		mov	r0, r5
 2426              	.LVL282:
 2427 0512 4022     		movs	r2, #64
 2428 0514 FFF7FEFF 		bl	memcpy
 2429              	.LVL283:
 598:bluetooth_rxtx.c **** 		} else {
 2430              		.loc 1 598 0
 2431 0518 4023     		movs	r3, #64
 2432 051a 7EE6     		b	.L235
 2433              	.LVL284:
 2434              	.L197:
 600:bluetooth_rxtx.c **** 			*data_len = 1;
 2435              		.loc 1 600 0
 2436 051c 2870     		strb	r0, [r5]
 2437              	.LVL285:
 2438              	.L225:
 601:bluetooth_rxtx.c **** 		}
 2439              		.loc 1 601 0
 2440 051e 0120     		movs	r0, #1
 2441              	.L226:
 2442 0520 2060     		str	r0, [r4]
 2443 0522 F8BD     		pop	{r3, r4, r5, r6, r7, pc}
 2444              	.LVL286:
 2445              	.L157:
 608:bluetooth_rxtx.c **** 		requested_mode = MODE_BT_PROMISC_LE;
 2446              		.loc 1 608 0
 2447 0524 3B4B     		ldr	r3, .L259+4
 606:bluetooth_rxtx.c **** 
 2448              		.loc 1 606 0
 2449 0526 0022     		movs	r2, #0
 2450              	.LVL287:
 2451 0528 2260     		str	r2, [r4]
 608:bluetooth_rxtx.c **** 		requested_mode = MODE_BT_PROMISC_LE;
 2452              		.loc 1 608 0
 2453 052a 9A72     		strb	r2, [r3, #10]
 609:bluetooth_rxtx.c **** 
 2454              		.loc 1 609 0
 2455 052c 0A22     		movs	r2, #10
 2456              	.L239:
 2457 052e 9A74     		strb	r2, [r3, #18]
 611:bluetooth_rxtx.c **** 		cs_threshold_calc_and_set(channel);
 2458              		.loc 1 611 0
 2459 0530 FFF7FEFF 		bl	queue_init
 2460              	.LVL288:
 2461              	.L240:
 612:bluetooth_rxtx.c **** 		break;
 2462              		.loc 1 612 0
 2463 0534 424B     		ldr	r3, .L259+48
 2464 0536 1888     		ldrh	r0, [r3]
 2465              	.L241:
 2466 0538 80B2     		uxth	r0, r0
 2467 053a FFF7FEFF 		bl	cs_threshold_calc_and_set
 2468              	.LVL289:
 2469 053e 88E0     		b	.L224
 2470              	.LVL290:
 2471              	.L160:
 616:bluetooth_rxtx.c **** 		data[0] = (reg_val >> 8) & 0xff;
ARM GAS  /var/folders/s6/4bph2j8d1nvcsgz5bgm0yhx00000gn/T//ccF5ee78.s 			page 92


 2472              		.loc 1 616 0
 2473 0540 0878     		ldrb	r0, [r1]	@ zero_extendqisi2
 2474              	.LVL291:
 2475 0542 FFF7FEFF 		bl	cc2400_get
 2476              	.LVL292:
 617:bluetooth_rxtx.c **** 		data[1] = reg_val & 0xff;
 2477              		.loc 1 617 0
 2478 0546 030A     		lsrs	r3, r0, #8
 2479 0548 2B70     		strb	r3, [r5]
 618:bluetooth_rxtx.c **** 		*data_len = 2;
 2480              		.loc 1 618 0
 2481 054a 6870     		strb	r0, [r5, #1]
 2482              	.LVL293:
 2483              	.L251:
 619:bluetooth_rxtx.c **** 		break;
 2484              		.loc 1 619 0
 2485 054c 0223     		movs	r3, #2
 2486 054e 64E6     		b	.L235
 2487              	.LVL294:
 2488              	.L164:
 623:bluetooth_rxtx.c **** 		break;
 2489              		.loc 1 623 0
 2490 0550 0878     		ldrb	r0, [r1]	@ zero_extendqisi2
 2491              	.LVL295:
 2492 0552 4988     		ldrh	r1, [r1, #2]
 2493              	.LVL296:
 2494              	.L236:
 2495 0554 FFF7FEFF 		bl	cc2400_set
 2496              	.LVL297:
 2497 0558 7BE0     		b	.L224
 2498              	.LVL298:
 2499              	.L204:
 193:bluetooth_rxtx.c **** 
 2500              		.loc 1 193 0
 2501 055a 0023     		movs	r3, #0
 2502              	.LVL299:
 2503              	.L170:
 627:bluetooth_rxtx.c **** 			reg_val = (data[(i*3)+1] << 8) | data[(i*3)+2];
 2504              		.loc 1 627 0 discriminator 1
 2505 055c 3288     		ldrh	r2, [r6]
 2506 055e 5C1C     		adds	r4, r3, #1
 2507 0560 DBB2     		uxtb	r3, r3
 2508 0562 9342     		cmp	r3, r2
 2509 0564 75D2     		bcs	.L224
 628:bluetooth_rxtx.c **** 			cc2400_set(data[i*3], reg_val);
 2510              		.loc 1 628 0 discriminator 3
 2511 0566 03EB4303 		add	r3, r3, r3, lsl #1
 2512              	.LVL300:
 2513 056a EA18     		adds	r2, r5, r3
 2514              	.LVL301:
 2515 056c 5178     		ldrb	r1, [r2, #1]	@ zero_extendqisi2
 2516 056e 9278     		ldrb	r2, [r2, #2]	@ zero_extendqisi2
 2517              	.LVL302:
 629:bluetooth_rxtx.c **** 		}
 2518              		.loc 1 629 0 discriminator 3
 2519 0570 E85C     		ldrb	r0, [r5, r3]	@ zero_extendqisi2
 2520 0572 42EA0121 		orr	r1, r2, r1, lsl #8
ARM GAS  /var/folders/s6/4bph2j8d1nvcsgz5bgm0yhx00000gn/T//ccF5ee78.s 			page 93


 2521 0576 FFF7FEFF 		bl	cc2400_set
 2522              	.LVL303:
 2523 057a 2346     		mov	r3, r4
 2524 057c EEE7     		b	.L170
 2525              	.LVL304:
 2526              	.L171:
 193:bluetooth_rxtx.c **** 
 2527              		.loc 1 193 0
 2528 057e 0026     		movs	r6, #0
 2529              	.LVL305:
 2530              	.L199:
 2531 0580 F7B2     		uxtb	r7, r6
 2532              	.LVL306:
 636:bluetooth_rxtx.c **** 			data[i*3] = i;
 2533              		.loc 1 636 0 discriminator 3
 2534 0582 3846     		mov	r0, r7
 2535 0584 FFF7FEFF 		bl	cc2400_get
 2536              	.LVL307:
 2537 0588 0136     		adds	r6, r6, #1
 638:bluetooth_rxtx.c **** 			data[(i*3)+2] = reg_val & 0xff;
 2538              		.loc 1 638 0 discriminator 3
 2539 058a 030A     		lsrs	r3, r0, #8
 635:bluetooth_rxtx.c **** 			reg_val = cc2400_get(i);
 2540              		.loc 1 635 0 discriminator 3
 2541 058c 2E2E     		cmp	r6, #46
 637:bluetooth_rxtx.c **** 			data[(i*3)+1] = (reg_val >> 8) & 0xff;
 2542              		.loc 1 637 0 discriminator 3
 2543 058e 2F70     		strb	r7, [r5]
 638:bluetooth_rxtx.c **** 			data[(i*3)+2] = reg_val & 0xff;
 2544              		.loc 1 638 0 discriminator 3
 2545 0590 6B70     		strb	r3, [r5, #1]
 639:bluetooth_rxtx.c **** 		}
 2546              		.loc 1 639 0 discriminator 3
 2547 0592 A870     		strb	r0, [r5, #2]
 2548              	.LVL308:
 2549 0594 05F10305 		add	r5, r5, #3
 635:bluetooth_rxtx.c **** 			reg_val = cc2400_get(i);
 2550              		.loc 1 635 0 discriminator 3
 2551 0598 F2D1     		bne	.L199
 641:bluetooth_rxtx.c **** 		break;
 2552              		.loc 1 641 0
 2553 059a 8723     		movs	r3, #135
 2554 059c 3DE6     		b	.L235
 2555              	.LVL309:
 2556              	.L173:
 645:bluetooth_rxtx.c **** 		memcpy(&tx_pkt, data, i);
 2557              		.loc 1 645 0
 2558 059e 9279     		ldrb	r2, [r2, #6]	@ zero_extendqisi2
 2559              	.LVL310:
 646:bluetooth_rxtx.c **** 		//tx_pkt.channel = data[4] << 8 | data[5];
 2560              		.loc 1 646 0
 2561 05a0 2848     		ldr	r0, .L259+52
 2562              	.LVL311:
 645:bluetooth_rxtx.c **** 		memcpy(&tx_pkt, data, i);
 2563              		.loc 1 645 0
 2564 05a2 0732     		adds	r2, r2, #7
 646:bluetooth_rxtx.c **** 		//tx_pkt.channel = data[4] << 8 | data[5];
ARM GAS  /var/folders/s6/4bph2j8d1nvcsgz5bgm0yhx00000gn/T//ccF5ee78.s 			page 94


 2565              		.loc 1 646 0
 2566 05a4 D2B2     		uxtb	r2, r2
 2567 05a6 2946     		mov	r1, r5
 2568              	.LVL312:
 2569 05a8 FFF7FEFF 		bl	memcpy
 2570              	.LVL313:
 648:bluetooth_rxtx.c **** 		*data_len = 0;
 2571              		.loc 1 648 0
 2572 05ac 1022     		movs	r2, #16
 2573              	.L250:
 2574 05ae 194B     		ldr	r3, .L259+4
 2575              	.L249:
 2576 05b0 9A74     		strb	r2, [r3, #18]
 2577 05b2 31E6     		b	.L238
 2578              	.LVL314:
 2579              	.L161:
 653:bluetooth_rxtx.c **** 		requested_mode = MODE_BT_SLAVE_LE;
 2580              		.loc 1 653 0
 2581 05b4 174C     		ldr	r4, .L259+4
 2582              	.LVL315:
 2583 05b6 1146     		mov	r1, r2
 2584              	.LVL316:
 2585 05b8 04F12000 		add	r0, r4, #32
 2586              	.LVL317:
 2587 05bc 0622     		movs	r2, #6
 2588              	.LVL318:
 2589 05be FFF7FEFF 		bl	memcpy
 2590              	.LVL319:
 654:bluetooth_rxtx.c **** 		break;
 2591              		.loc 1 654 0
 2592 05c2 0C23     		movs	r3, #12
 2593 05c4 07E0     		b	.L237
 2594              	.LVL320:
 2595              	.L175:
 658:bluetooth_rxtx.c **** 		requested_mode = MODE_BOSS_SLAVE_LE;
 2596              		.loc 1 658 0
 2597 05c6 134C     		ldr	r4, .L259+4
 2598              	.LVL321:
 2599 05c8 1146     		mov	r1, r2
 2600              	.LVL322:
 2601 05ca 04F12000 		add	r0, r4, #32
 2602              	.LVL323:
 2603 05ce 0622     		movs	r2, #6
 2604              	.LVL324:
 2605 05d0 FFF7FEFF 		bl	memcpy
 2606              	.LVL325:
 659:bluetooth_rxtx.c **** 		break;
 2607              		.loc 1 659 0
 2608 05d4 1123     		movs	r3, #17
 2609              	.L237:
 2610 05d6 A374     		strb	r3, [r4, #18]
 2611 05d8 3BE0     		b	.L224
 2612              	.LVL326:
 2613              	.L163:
 665:bluetooth_rxtx.c **** 		le.target[1] = data[4];
 2614              		.loc 1 665 0
 2615 05da 5279     		ldrb	r2, [r2, #5]	@ zero_extendqisi2
ARM GAS  /var/folders/s6/4bph2j8d1nvcsgz5bgm0yhx00000gn/T//ccF5ee78.s 			page 95


 2616              	.LVL327:
 2617 05dc 184B     		ldr	r3, .L259+48
 671:bluetooth_rxtx.c **** 		break;
 2618              		.loc 1 671 0
 2619 05de 0120     		movs	r0, #1
 2620              	.LVL328:
 665:bluetooth_rxtx.c **** 		le.target[1] = data[4];
 2621              		.loc 1 665 0
 2622 05e0 83F83820 		strb	r2, [r3, #56]
 666:bluetooth_rxtx.c **** 		le.target[2] = data[3];
 2623              		.loc 1 666 0
 2624 05e4 2A79     		ldrb	r2, [r5, #4]	@ zero_extendqisi2
 2625 05e6 83F83920 		strb	r2, [r3, #57]
 667:bluetooth_rxtx.c **** 		le.target[3] = data[2];
 2626              		.loc 1 667 0
 2627 05ea EA78     		ldrb	r2, [r5, #3]	@ zero_extendqisi2
 2628 05ec 83F83A20 		strb	r2, [r3, #58]
 668:bluetooth_rxtx.c **** 		le.target[4] = data[1];
 2629              		.loc 1 668 0
 2630 05f0 AA78     		ldrb	r2, [r5, #2]	@ zero_extendqisi2
 2631 05f2 83F83B20 		strb	r2, [r3, #59]
 669:bluetooth_rxtx.c **** 		le.target[5] = data[0];
 2632              		.loc 1 669 0
 2633 05f6 6A78     		ldrb	r2, [r5, #1]	@ zero_extendqisi2
 2634 05f8 83F83C20 		strb	r2, [r3, #60]
 670:bluetooth_rxtx.c **** 		le.target_set = 1;
 2635              		.loc 1 670 0
 2636 05fc 2A78     		ldrb	r2, [r5]	@ zero_extendqisi2
 2637 05fe 83F83D20 		strb	r2, [r3, #61]
 2638              	.LVL329:
 2639              	.L227:
 671:bluetooth_rxtx.c **** 		break;
 2640              		.loc 1 671 0
 2641 0602 1864     		str	r0, [r3, #64]
 672:bluetooth_rxtx.c **** 
 2642              		.loc 1 672 0
 2643 0604 F8BD     		pop	{r3, r4, r5, r6, r7, pc}
 2644              	.LVL330:
 2645              	.L165:
 676:bluetooth_rxtx.c **** 		break;
 2646              		.loc 1 676 0
 2647 0606 0A78     		ldrb	r2, [r1]	@ zero_extendqisi2
 2648              	.LVL331:
 2649 0608 024B     		ldr	r3, .L259+4
 2650 060a DA74     		strb	r2, [r3, #19]
 2651 060c 21E0     		b	.L224
 2652              	.L260:
 2653 060e 00BF     		.align	2
 2654              	.L259:
 2655 0610 00000000 		.word	clkn_offset
 2656 0614 00000000 		.word	.LANCHOR0
 2657 0618 98C00920 		.word	537510040
 2658 061c 00000000 		.word	clk100ns_offset
 2659 0620 00000000 		.word	afh_map
 2660 0624 00000000 		.word	used_channels
 2661 0628 00000000 		.word	afh_enabled
 2662 062c 00000000 		.word	clkn
ARM GAS  /var/folders/s6/4bph2j8d1nvcsgz5bgm0yhx00000gn/T//ccF5ee78.s 			page 96


 2663 0630 00000000 		.word	clk_drift_ppm
 2664 0634 00000000 		.word	clkn_next_drift_fix
 2665 0638 00000000 		.word	clk_drift_correction
 2666 063c 00000000 		.word	clkn_last_drift_fix
 2667 0640 00000000 		.word	.LANCHOR1
 2668 0644 00000000 		.word	tx_pkt
 2669              	.LVL332:
 2670              	.L166:
 685:bluetooth_rxtx.c **** 		ego_mode = request_params[0];
 2671              		.loc 1 685 0
 2672 0648 044B     		ldr	r3, .L261
 2673 064a 0D22     		movs	r2, #13
 2674              	.LVL333:
 2675 064c 9A74     		strb	r2, [r3, #18]
 686:bluetooth_rxtx.c **** 		break;
 2676              		.loc 1 686 0
 2677 064e 0A78     		ldrb	r2, [r1]	@ zero_extendqisi2
 2678 0650 1A75     		strb	r2, [r3, #20]
 2679              	.LVL334:
 2680              	.L224:
 692:bluetooth_rxtx.c **** }
 2681              		.loc 1 692 0
 2682 0652 0120     		movs	r0, #1
 687:bluetooth_rxtx.c **** 
 2683              		.loc 1 687 0
 2684 0654 F8BD     		pop	{r3, r4, r5, r6, r7, pc}
 2685              	.LVL335:
 2686              	.L211:
 310:bluetooth_rxtx.c **** 		}
 2687              		.loc 1 310 0
 2688 0656 0020     		movs	r0, #0
 693:bluetooth_rxtx.c **** 
 2689              		.loc 1 693 0
 2690 0658 F8BD     		pop	{r3, r4, r5, r6, r7, pc}
 2691              	.LVL336:
 2692              	.L262:
 2693 065a 00BF     		.align	2
 2694              	.L261:
 2695 065c 00000000 		.word	.LANCHOR0
 2696              		.cfi_endproc
 2697              	.LFE2:
 2699              		.section	.text.msleep.constprop.3,"ax",%progbits
 2700              		.align	1
 2701              		.thumb
 2702              		.thumb_func
 2704              	msleep.constprop.3:
 2705              	.LFB48:
 785:bluetooth_rxtx.c **** {
 2706              		.loc 1 785 0
 2707              		.cfi_startproc
 2708              		@ args = 0, pretend = 0, frame = 0
 2709              		@ frame_needed = 0, uses_anonymous_args = 0
 2710              		@ link register save eliminated.
 2711              	.LVL337:
 787:bluetooth_rxtx.c **** 	uint32_t stop_at = now + millis * 10000 / 3125; // millis -> clkn ticks
 2712              		.loc 1 787 0
 2713 0000 054A     		ldr	r2, .L266
ARM GAS  /var/folders/s6/4bph2j8d1nvcsgz5bgm0yhx00000gn/T//ccF5ee78.s 			page 97


 2714 0002 1368     		ldr	r3, [r2]
 2715              	.LVL338:
 2716 0004 23F07F43 		bic	r3, r3, #-16777216
 2717              	.LVL339:
 788:bluetooth_rxtx.c **** 
 2718              		.loc 1 788 0
 2719 0008 03F5A073 		add	r3, r3, #320
 2720              	.LVL340:
 2721              	.L264:
 795:bluetooth_rxtx.c **** 	}
 2722              		.loc 1 795 0
 2723 000c 1168     		ldr	r1, [r2]
 2724 000e 21F07F41 		bic	r1, r1, #-16777216
 2725 0012 9942     		cmp	r1, r3
 2726 0014 FAD3     		bcc	.L264
 797:bluetooth_rxtx.c **** 
 2727              		.loc 1 797 0
 2728 0016 7047     		bx	lr
 2729              	.L267:
 2730              		.align	2
 2731              	.L266:
 2732 0018 00000000 		.word	clkn
 2733              		.cfi_endproc
 2734              	.LFE48:
 2736              		.section	.text.enqueue_with_ts,"ax",%progbits
 2737              		.align	1
 2738              		.global	enqueue_with_ts
 2739              		.thumb
 2740              		.thumb_func
 2742              	enqueue_with_ts:
 2743              	.LFB1:
 159:bluetooth_rxtx.c **** 	usb_pkt_rx* f = usb_enqueue();
 2744              		.loc 1 159 0
 2745              		.cfi_startproc
 2746              		@ args = 0, pretend = 0, frame = 0
 2747              		@ frame_needed = 0, uses_anonymous_args = 0
 2748              	.LVL341:
 2749 0000 2DE9F041 		push	{r4, r5, r6, r7, r8, lr}
 2750              		.cfi_def_cfa_offset 24
 2751              		.cfi_offset 4, -24
 2752              		.cfi_offset 5, -20
 2753              		.cfi_offset 6, -16
 2754              		.cfi_offset 7, -12
 2755              		.cfi_offset 8, -8
 2756              		.cfi_offset 14, -4
 159:bluetooth_rxtx.c **** 	usb_pkt_rx* f = usb_enqueue();
 2757              		.loc 1 159 0
 2758 0004 0646     		mov	r6, r0
 2759 0006 0F46     		mov	r7, r1
 2760 0008 9046     		mov	r8, r2
 160:bluetooth_rxtx.c **** 
 2761              		.loc 1 160 0
 2762 000a FFF7FEFF 		bl	usb_enqueue
 2763              	.LVL342:
 2764 000e 0F4D     		ldr	r5, .L271
 163:bluetooth_rxtx.c **** 		status |= FIFO_OVERFLOW;
 2765              		.loc 1 163 0
ARM GAS  /var/folders/s6/4bph2j8d1nvcsgz5bgm0yhx00000gn/T//ccF5ee78.s 			page 98


 2766 0010 0446     		mov	r4, r0
 2767 0012 28B9     		cbnz	r0, .L269
 164:bluetooth_rxtx.c **** 		return 0;
 2768              		.loc 1 164 0
 2769 0014 6B78     		ldrb	r3, [r5, #1]	@ zero_extendqisi2
 2770 0016 43F00403 		orr	r3, r3, #4
 2771 001a 6B70     		strb	r3, [r5, #1]
 165:bluetooth_rxtx.c **** 	}
 2772              		.loc 1 165 0
 2773 001c BDE8F081 		pop	{r4, r5, r6, r7, r8, pc}
 2774              	.LVL343:
 2775              	.L269:
 173:bluetooth_rxtx.c **** 	f->rssi_avg = 0;
 2776              		.loc 1 173 0
 2777 0020 0B4B     		ldr	r3, .L271+4
 168:bluetooth_rxtx.c **** 
 2778              		.loc 1 168 0
 2779 0022 0670     		strb	r6, [r0]
 173:bluetooth_rxtx.c **** 	f->rssi_avg = 0;
 2780              		.loc 1 173 0
 2781 0024 1B88     		ldrh	r3, [r3]
 170:bluetooth_rxtx.c **** 	f->clk100ns = ts;
 2782              		.loc 1 170 0
 2783 0026 0026     		movs	r6, #0
 173:bluetooth_rxtx.c **** 	f->rssi_avg = 0;
 2784              		.loc 1 173 0
 2785 0028 623B     		subs	r3, r3, #98
 170:bluetooth_rxtx.c **** 	f->clk100ns = ts;
 2786              		.loc 1 170 0
 2787 002a C670     		strb	r6, [r0, #3]
 171:bluetooth_rxtx.c **** 
 2788              		.loc 1 171 0
 2789 002c C0F80480 		str	r8, [r0, #4]
 173:bluetooth_rxtx.c **** 	f->rssi_avg = 0;
 2790              		.loc 1 173 0
 2791 0030 8370     		strb	r3, [r0, #2]
 174:bluetooth_rxtx.c **** 	f->rssi_count = 0;
 2792              		.loc 1 174 0
 2793 0032 8672     		strb	r6, [r0, #10]
 175:bluetooth_rxtx.c **** 
 2794              		.loc 1 175 0
 2795 0034 C672     		strb	r6, [r0, #11]
 177:bluetooth_rxtx.c **** 
 2796              		.loc 1 177 0
 2797 0036 3946     		mov	r1, r7
 2798 0038 3222     		movs	r2, #50
 2799 003a 0E30     		adds	r0, r0, #14
 2800              	.LVL344:
 2801 003c FFF7FEFF 		bl	memcpy
 2802              	.LVL345:
 179:bluetooth_rxtx.c **** 	status = 0;
 2803              		.loc 1 179 0
 2804 0040 6B78     		ldrb	r3, [r5, #1]	@ zero_extendqisi2
 180:bluetooth_rxtx.c **** 
 2805              		.loc 1 180 0
 2806 0042 6E70     		strb	r6, [r5, #1]
 179:bluetooth_rxtx.c **** 	status = 0;
ARM GAS  /var/folders/s6/4bph2j8d1nvcsgz5bgm0yhx00000gn/T//ccF5ee78.s 			page 99


 2807              		.loc 1 179 0
 2808 0044 6370     		strb	r3, [r4, #1]
 182:bluetooth_rxtx.c **** }
 2809              		.loc 1 182 0
 2810 0046 0120     		movs	r0, #1
 183:bluetooth_rxtx.c **** 
 2811              		.loc 1 183 0
 2812 0048 BDE8F081 		pop	{r4, r5, r6, r7, r8, pc}
 2813              	.LVL346:
 2814              	.L272:
 2815              		.align	2
 2816              	.L271:
 2817 004c 00000000 		.word	.LANCHOR0
 2818 0050 00000000 		.word	.LANCHOR1
 2819              		.cfi_endproc
 2820              	.LFE1:
 2822              		.section	.text.TIMER0_IRQHandler,"ax",%progbits
 2823              		.align	1
 2824              		.global	TIMER0_IRQHandler
